(dp1
I915024555
I28230
sI171518636
I34816
sI872677419
I28232
sI976093249
I34780
sI976093250
I34780
sI976093251
I34813
sI976093252
I34813
sI976093253
I34813
sI976093254
I34813
sI243537249
I34816
sI915024568
I28232
sI275972191
I34814
sI215646306
I28232
sI275972195
I34814
sI915046517
I28228
sI915046518
I28228
sI215646329
I28232
sI215646335
I28232
sI215646338
I28232
sI215646348
I28232
sI914981017
I34810
sI914981018
I34810
sI914981019
I34810
sI914981020
I34810
sI914981021
I34810
sI914981022
I34810
sI914981023
I34810
sI914981024
I34810
sI916269766
I27865
sI914981063
I27865
sI914981064
I27865
sI915024593
I28230
sI215673568
I34810
sI851472977
I34810
sI914991842
I24664
sI872677719
I35619
sI215646567
I28232
sI215646571
I28232
sI171521261
I34813
sI215646619
I28232
sI275502496
I28235
sI215646662
I28232
sI215646663
I28232
sI215646684
I28232
sI915008251
I27865
sI215646697
I28232
sI976093691
I34813
sI976093692
I34813
sI976093693
I34722
sI976093694
I34722
sI976093695
I34813
sI921332483
I27865
sI921332484
I27865
sI215646756
I28232
sI915041032
I28228
sI275507977
I28232
sI215646789
I28232
sI215646797
I34722
sI171535118
I28228
sI1103096591
I34816
sI24865559
I27865
sI976093874
I34780
sI976093875
I34780
sI976093876
I34780
sI976093877
I34780
sI976093878
I34780
sI976093879
I34780
sI976093880
I34780
sI976093881
I34780
sI915014346
I27865
sI915014347
I27865
sI976093944
I28235
sI976093945
I28235
sI976093946
I34780
sI976093947
I34780
sI275448577
I28228
sI916269868
I27865
sI915014425
I28231
sI915014426
I28231
sI921338666
I34815
sI921338667
I34815
sI921338668
I34815
sI921338669
I34815
sI921338670
I34815
sI952107866
I28234
sI952107867
I34813
sI952107868
I34780
sI918455167
I34811
sI918455168
I28228
sI918455169
I28228
sI918455170
I34816
sI1044693146
I28235
sI1045496742
I28235
sI1045496743
I28235
sI1045496744
I28235
sI1045496745
I28235
sI1045496746
I34813
sI1045496747
I34813
sI1045496748
I34813
sI1045496749
I34813
sI1045496750
I34813
sI1045496751
I34813
sI1045496752
I34813
sI1045496753
I34813
sI1045496754
I34813
sI1045496755
I28235
sI1045496756
I28235
sI1045496757
I28235
sI1045496758
I28235
sI1045496759
I28235
sI1045496760
I28235
sI1045496761
I28235
sI1045496762
I28235
sI1045496763
I28235
sI1045496764
I34813
sI1045496765
I34813
sI1045496766
I34813
sI1045496767
I34813
sI1045496768
I34813
sI1045496769
I34780
sI1045496770
I34780
sI1045496771
I34780
sI1045496772
I34780
sI275973102
I34816
sI848561135
I34814
sI848561137
I34814
sI848561138
I28230
sI848561139
I28230
sI848561140
I34813
sI848561142
I27865
sI848561143
I34813
sI848561144
I34813
sI1060078585
I28235
sI1060078586
I28235
sI915014676
I27865
sI915014677
I27865
sI851488483
I28232
sI915014692
I27865
sI915014693
I27865
sI915014697
I27865
sI811041851
I34810
sI811041852
I34810
sI915014725
I27865
sI915014738
I27865
sI275973212
I34815
sI842925165
I28235
sI842925166
I28235
sI915014788
I28228
sI915014789
I28228
sI915014801
I27865
sI915014805
I27865
sI915014806
I27865
sI915014810
I27865
sI915014811
I27865
sI915014814
I27865
sI275449017
I34780
sI275449018
I34780
sI275449028
I34780
sI171518839
I34815
sI275449039
I34780
sI275449042
I34780
sI979698922
I28228
sI979698923
I28228
sI979698924
I28228
sI979698925
I28228
sI979698926
I34780
sI979698927
I28235
sI979698928
I34811
sI979698929
I28236
sI275449074
I34780
sI979698931
I28228
sI979698932
I28228
sI275449080
I34780
sI275449128
I34780
sI275449140
I34780
sI171518857
I34816
sI275121465
I34816
sI1045506955
I34813
sI919513996
I34810
sI869008714
I34814
sI869008715
I34814
sI842040662
I28232
sI842040663
I28232
sI914822714
I34810
sI914822715
I34810
sI914992018
I34666
sI918459965
I28232
sI976098878
I28230
sI916254705
I27865
sI976094675
I34780
sI976094676
I34780
sI976094677
I34780
sI976094678
I34780
sI976094679
I34780
sI976094680
I34780
sI917767677
I24664
sI917767678
I24664
sI917767679
I24664
sI918455860
I28235
sI918455861
I34811
sI215647850
I34722
sI215647870
I28236
sI215647883
I28236
sI915015338
I28232
sI915015348
I28232
sI976094925
I28228
sI976094926
I28228
sI976094927
I28228
sI215647953
I28236
sI919930578
I28232
sI919930579
I28232
sI919930580
I34816
sI919930581
I27865
sI919930582
I27865
sI919930583
I27865
sI919930584
I24664
sI916275492
I34811
sI215647962
I28236
sI919930587
I24664
sI919930588
I27865
sI171524389
I34810
sI215647972
I28236
sI215647986
I28236
sI215648035
I28236
sI976095125
I34814
sI976095126
I34814
sI976095127
I28228
sI976095128
I28228
sI976095129
I34722
sI1114900389
I28230
sI1114900390
I28230
sI1114900391
I28230
sI1114900392
I28230
sI1114900393
I34816
sI1114900394
I28230
sI1114900395
I34816
sI948242348
I34780
sI948242349
I34780
sI948242353
I34780
sI950299636
I27865
sI171529887
I24664
sI950306751
I28230
sI950306752
I28230
sI171509698
I27865
sI954206158
I28230
sI954206159
I28230
sI954206160
I28230
sI954206161
I28230
sI954206162
I28230
sI1045492533
I34813
sI275154907
I34816
sI275154911
I34816
sI171509744
I27865
sI171509768
I34816
sI171509771
I27865
sI171509784
I27865
sI979688783
I34810
sI915010122
I24664
sI171509824
I34816
sI171509831
I34816
sI215648360
I28236
sI914986685
I27865
sI171524457
I34810
sI1110608016
I34813
sI171529923
I24664
sI171509952
I28234
sI171509964
I28234
sI216598741
I27865
sI171509980
I28234
sI275983399
I28232
sI171510000
I28234
sI948251688
I34813
sI171510003
I28234
sI171510020
I28234
sI275974406
I28230
sI275974409
I28230
sI275974417
I28230
sI275974418
I28230
sI275974419
I28230
sI275974420
I28230
sI275974423
I28230
sI171510044
I28234
sI275974430
I28230
sI275983408
I28232
sI171510054
I28234
sI171510059
I28234
sI171510060
I28234
sI171510063
I28234
sI171510080
I28234
sI215648577
I28228
sI215648578
I28228
sI915016003
I28230
sI171510089
I28234
sI915016010
I28230
sI171510091
I28234
sI171510120
I28234
sI171510126
I28234
sI171510128
I28234
sI1075284345
I28230
sI1075284346
I28230
sI275983424
I28232
sI917768589
I24664
sI171510169
I28234
sI215648672
I28228
sI915016097
I28236
sI915016098
I28236
sI171510184
I28234
sI216598959
I27865
sI1045498300
I34780
sI1045498301
I34780
sI1045498302
I34812
sI1045498303
I34812
sI1045498304
I34811
sI1045498305
I34811
sI1045498306
I34780
sI1060276697
I28235
sI216599005
I27865
sI1060080112
I28235
sI1060080113
I28235
sI1060080114
I28235
sI1060080115
I28235
sI1060080116
I28235
sI215648808
I28228
sI215648815
I28228
sI335462835
I34816
sI171510379
I28234
sI171510381
I28234
sI171510385
I28234
sI1069058677
I28235
sI1069058678
I28235
sI1069058679
I28235
sI1069058680
I28235
sI1069058681
I28235
sI1069058682
I28235
sI1069058683
I28235
sI171510396
I28234
sI171510404
I28234
sI171510410
I28234
sI171510413
I28234
sI1060080275
I28235
sI1060080276
I28235
sI1060080277
I28235
sI1060080278
I28235
sI171510423
I28234
sI1060080280
I28235
sI1060080281
I28235
sI171510426
I28234
sI915016347
I34811
sI915016348
I34811
sI171510431
I28234
sI171510434
I28234
sI171510436
I28234
sI171510439
I28234
sI171510442
I28234
sI171510444
I28234
sI915016374
I34811
sI915016375
I34811
sI171510459
I28234
sI171510466
I28234
sI171510467
I28234
sI915016407
I34811
sI915016408
I34811
sI915016409
I34811
sI275450604
I34780
sI275450605
I34780
sI171510537
I28234
sI171510555
I28234
sI171510561
I28234
sI171510567
I28234
sI171531534
I24664
sI915016507
I28232
sI915016508
I28232
sI171510590
I28234
sI216599360
I27865
sI952109890
I34810
sI952109892
I27865
sI216599379
I27865
sI171510633
I28234
sI171519125
I34814
sI915016576
I28232
sI915016583
I28232
sI171510667
I34811
sI171510670
I34816
sI914983827
I27865
sI215616412
I28229
sI171510690
I34816
sI915016615
I28228
sI915016616
I28228
sI914983859
I27865
sI914983860
I27865
sI914983868
I27865
sI275450847
I34811
sI275450849
I34811
sI976096272
I34780
sI976096273
I28235
sI976096274
I28235
sI976096275
I28235
sI976096276
I34780
sI976096277
I34780
sI215649325
I28236
sI1060277303
I34780
sI1060277304
I34780
sI1060277305
I34780
sI1060277306
I34780
sI1060277307
I34780
sI1060277308
I28235
sI1060277309
I34780
sI171510846
I27865
sI1060277311
I34780
sI1060277312
I34780
sI1060277313
I28235
sI1060277314
I28235
sI1060277315
I28235
sI1060277316
I28235
sI1060277317
I28235
sI1060277318
I28235
sI1060277319
I28235
sI215649352
I28235
sI338870796
I28232
sI215649360
I28235
sI215649380
I28235
sI171510912
I34816
sI215649410
I28235
sI171510917
I34816
sI171510928
I27865
sI171510943
I27865
sI914992328
I27865
sI914975961
I24664
sI171511032
I27865
sI24866007
I28230
sI171511058
I27865
sI171511063
I27865
sI338857241
I28234
sI275975458
I34814
sI338857256
I34722
sI24866013
I28230
sI275975489
I34814
sI872680776
I28230
sI914975970
I24664
sI275975502
I34814
sI275975503
I34814
sI914975965
I24664
sI275975507
I34814
sI275975511
I34814
sI275975513
I34814
sI915017052
I28228
sI915017053
I28228
sI915017054
I28228
sI915017055
I28228
sI915017056
I28228
sI915017057
I28228
sI914984302
I27865
sI915017120
I28228
sI915017121
I28228
sI915017122
I28228
sI915017123
I28228
sI915017124
I28228
sI915017125
I28228
sI851479987
I34780
sI851479988
I34780
sI851479989
I34813
sI851479990
I28234
sI851479991
I28234
sI851479992
I28234
sI851479993
I28234
sI851479994
I28234
sI171511227
I27865
sI851479996
I34813
sI851479997
I34780
sI851479998
I34780
sI851479999
I34780
sI851480000
I28234
sI171511239
I27865
sI976096712
I34780
sI976096713
I34780
sI171511251
I27865
sI171511259
I27865
sI171511261
I27865
sI922324465
I34816
sI922324466
I34816
sI922324467
I34816
sI922324468
I34816
sI922324469
I34816
sI922324470
I34816
sI922324471
I34816
sI922324472
I34816
sI922324473
I34816
sI922324474
I34816
sI922324475
I34816
sI275451393
I28228
sI275451410
I28228
sI171519235
I28234
sI275156503
I34811
sI171511326
I27865
sI338857520
I27865
sI338857527
I34810
sI338857532
I34810
sI1061989643
I28230
sI1062907148
I28230
sI338857553
I28230
sI338857554
I28230
sI338857557
I28230
sI338857565
I28230
sI338857567
I28230
sI338857569
I28230
sI338857571
I28230
sI171511398
I27865
sI954281233
I28230
sI338857579
I28230
sI338857581
I28230
sI171511408
I27865
sI916275816
I34811
sI171511413
I27865
sI338870889
I34810
sI338857593
I34816
sI338870890
I34810
sI1062907157
I34816
sI338857605
I34816
sI338857606
I34816
sI338857611
I34810
sI338857612
I34815
sI338857622
I34815
sI338857623
I28230
sI338857626
I28230
sI338857628
I28230
sI338857631
I28230
sI338857633
I28230
sI338857639
I28230
sI338857644
I28230
sI338857645
I28230
sI338857647
I28230
sI171511472
I27865
sI338857650
I28230
sI171511476
I27865
sI338857657
I28230
sI338857658
I28230
sI338857662
I28230
sI338857663
I28230
sI338857665
I28230
sI338857669
I28230
sI171511494
I27865
sI338857674
I28230
sI338857678
I28230
sI338857682
I28230
sI338857689
I24664
sI338857691
I24664
sI851480937
I28234
sI171521410
I28235
sI171511535
I27865
sI171511543
I27865
sI915030657
I28234
sI976097045
I28231
sI976097046
I28231
sI976097047
I28231
sI976097048
I28231
sI976097049
I28231
sI976097050
I34815
sI976097051
I34816
sI976097052
I34816
sI976097053
I34816
sI976097054
I34816
sI976097055
I34816
sI171511585
I27865
sI171511607
I27865
sI851480940
I28234
sI338857790
I24664
sI171511617
I27865
sI171511618
I27865
sI1060278087
I34780
sI1060278088
I34780
sI1060278089
I34780
sI1060278090
I34780
sI1060278091
I34780
sI1060278092
I34780
sI1060278093
I34780
sI1060278094
I34780
sI1111486326
I28234
sI338857819
I34722
sI918458212
I27865
sI918458213
I27865
sI918458214
I28231
sI918458215
I28231
sI918458216
I28232
sI171511657
I27865
sI918458218
I28232
sI338857835
I24664
sI918458220
I34810
sI918458221
I24664
sI918458222
I34816
sI918458223
I34810
sI918458224
I34810
sI918458225
I34810
sI171511666
I27865
sI918458227
I27865
sI1060089150
I34813
sI171511685
I27865
sI917933972
I24664
sI171511704
I27865
sI171511707
I27865
sI338857885
I28235
sI171511714
I27865
sI338857893
I28235
sI919513995
I34810
sI171524767
I34810
sI171511741
I27865
sI338857919
I28230
sI338857925
I28230
sI916275873
I28236
sI338857929
I28230
sI338857936
I28230
sI171524691
I34810
sI916275875
I28236
sI24866126
I27865
sI215650275
I34722
sI171524775
I34810
sI171524776
I34810
sI171511801
I27865
sI215650299
I34780
sI215650303
I34780
sI171511811
I27865
sI171513859
I35619
sI215650335
I28235
sI215650337
I34780
sI215650338
I34780
sI171511844
I27865
sI171530246
I24664
sI215650352
I28235
sI215650357
I28235
sI171513865
I35619
sI171511865
I27865
sI171511878
I27865
sI215650377
I34813
sI171511892
I27865
sI171511895
I27865
sI275506118
I34813
sI171511903
I27865
sI215641446
I34814
sI915025255
I28228
sI914992488
I27865
sI171511934
I27865
sI915017864
I28230
sI915017865
I28230
sI338858125
I34816
sI171511960
I27865
sI171519348
I34780
sI171512011
I27865
sI914985164
I28230
sI914985165
I28230
sI171512036
I27865
sI216600819
I27865
sI171512057
I27865
sI171512061
I27865
sI171512062
I27865
sI216600831
I27865
sI216600842
I27865
sI171512076
I27865
sI171512077
I27865
sI171512079
I27865
sI24866179
I28230
sI171512084
I27865
sI275213700
I28228
sI171512098
I27865
sI24866182
I28230
sI171519367
I34780
sI24866185
I28230
sI171512131
I27865
sI813011270
I34815
sI813011271
I34815
sI813011272
I34815
sI335463138
I24664
sI275986224
I27865
sI914976144
I27865
sI851775847
I34816
sI851480936
I28234
sI338858345
I34780
sI851480938
I28234
sI851775851
I28235
sI338858348
I34780
sI851480941
I28234
sI851480942
I28234
sI851480943
I28234
sI851480944
I28234
sI851480945
I28228
sI851480946
I28228
sI851480947
I28228
sI851480948
I28228
sI851480950
I28235
sI851480951
I34780
sI851480952
I34780
sI851480953
I34780
sI851480954
I34780
sI171512190
I27865
sI216600960
I27865
sI848140353
I34816
sI171535767
I28232
sI1121194394
I34780
sI1121194395
I28235
sI1121194398
I34813
sI1121194399
I34780
sI216600992
I27865
sI1121194401
I28235
sI1121194402
I28235
sI1121194403
I28235
sI1121194404
I28235
sI1121194405
I28235
sI1121194406
I28235
sI1121194408
I34813
sI275976625
I28230
sI215650738
I34814
sI275976627
I28230
sI215650740
I34814
sI275976629
I28230
sI215650747
I34814
sI275976639
I28230
sI275976640
I28230
sI338858434
I34780
sI338858439
I34780
sI338858442
I34780
sI215650764
I34722
sI338858446
I34780
sI338858447
I34780
sI275976656
I28230
sI338858449
I34780
sI275976659
I28230
sI275976666
I28230
sI338858462
I34780
sI171512289
I27865
sI338858466
I34780
sI275976677
I28230
sI275976678
I28230
sI171512302
I27865
sI335450613
I34815
sI335450616
I34815
sI915018238
I28230
sI915018239
I28230
sI338858502
I34780
sI215652439
I28232
sI338858508
I34811
sI338858512
I34811
sI338858517
I34811
sI171512342
I27865
sI338858519
I34811
sI171512346
I27865
sI338858523
I34780
sI171512348
I27865
sI338858525
I34780
sI338858528
I34780
sI338858530
I34780
sI171512360
I27865
sI171512390
I27865
sI171512393
I27865
sI914985547
I28230
sI914985548
I28230
sI171512410
I34810
sI328012379
I28230
sI328012380
I28230
sI328012381
I28230
sI335456095
I34811
sI216601194
I27865
sI216601200
I27865
sI171512441
I27865
sI914985594
I28230
sI914985595
I28230
sI914985600
I28230
sI914985601
I28230
sI171512450
I27865
sI216601222
I27865
sI914985609
I28230
sI915018387
I28232
sI915018388
I34722
sI915018389
I34722
sI851488198
I34816
sI275983815
I28232
sI171512495
I27865
sI338858678
I28235
sI171519433
I34780
sI338858681
I28235
sI24866250
I34810
sI171512510
I27865
sI338858690
I34816
sI171519435
I34780
sI24866252
I34810
sI338858698
I34816
sI914987127
I34810
sI338858704
I34816
sI171512530
I27865
sI338858708
I34816
sI338858709
I34816
sI338858711
I34816
sI171512536
I27865
sI976098009
I28230
sI976098010
I28230
sI976098011
I28230
sI976098012
I28230
sI976098013
I28230
sI976098014
I34816
sI287955067
I34816
sI338858727
I34816
sI914987132
I34810
sI216601325
I27865
sI338858736
I34816
sI216601332
I27865
sI171512573
I27865
sI338858754
I34811
sI338858756
I34811
sI171512584
I27865
sI171512597
I27865
sI171512607
I27865
sI948245280
I34811
sI338858791
I34780
sI338858792
I34811
sI338858800
I34780
sI335463219
I34811
sI171512636
I27865
sI338858813
I34780
sI338858814
I34780
sI338858815
I34780
sI171512640
I27865
sI338858817
I34780
sI914985796
I28231
sI914985797
I28231
sI338858830
I34780
sI338858832
I34780
sI338858845
I34780
sI338858848
I34780
sI338858849
I34780
sI338858850
I34780
sI338858852
I28234
sI338858854
I34780
sI338858855
I34780
sI338858856
I34780
sI338858857
I34780
sI338858858
I34780
sI338858859
I34780
sI338858860
I34780
sI338858861
I34780
sI338858862
I34780
sI338858863
I28235
sI335463230
I34811
sI1121194872
I28235
sI915003543
I27865
sI275977100
I34816
sI215651213
I24664
sI338858894
I34780
sI338858897
I34780
sI215651220
I24664
sI338858901
I34780
sI215651223
I24664
sI216601501
I27865
sI338858912
I34780
sI338858914
I34780
sI338858916
I34780
sI275989318
I34810
sI338858919
I34780
sI338858921
I28234
sI338858926
I34780
sI338858929
I34780
sI338858930
I34780
sI1120768949
I34813
sI215651256
I24664
sI171524941
I28231
sI338858966
I34780
sI338858967
I34780
sI338858973
I34811
sI216601566
I27865
sI171530405
I24664
sI171530676
I34816
sI338858991
I34816
sI338858994
I34816
sI338859001
I34816
sI275977215
I34815
sI338859008
I34816
sI216601601
I27865
sI275977219
I34815
sI171524951
I28231
sI338859034
I34816
sI171512872
I34810
sI338859052
I34810
sI338859053
I27865
sI171514035
I27865
sI338859060
I27865
sI171512888
I34810
sI338859065
I27865
sI338859066
I27865
sI216601659
I27865
sI338859068
I34780
sI338859069
I34780
sI338859081
I34780
sI338859082
I34780
sI171512909
I34810
sI338859096
I34780
sI171519503
I34780
sI1099994212
I34780
sI1099994213
I34780
sI1099994214
I34780
sI171519505
I34780
sI171512936
I34810
sI215651435
I28232
sI338859122
I28228
sI221975699
I28234
sI221975700
I28234
sI171512982
I34810
sI171512985
I34810
sI221975713
I28234
sI221975716
I28234
sI1123554469
I28230
sI221975724
I28234
sI1119392944
I34780
sI1119392945
I34780
sI1119392946
I34780
sI221975732
I34813
sI221975738
I34813
sI171513026
I34810
sI221975748
I34814
sI221975766
I34814
sI171513049
I34810
sI171514063
I27865
sI914822370
I34810
sI914822371
I34810
sI221975783
I34813
sI221975784
I34814
sI221975785
I28234
sI171513069
I34810
sI915018994
I28230
sI171513089
I34810
sI171524737
I34810
sI171513151
I27865
sI950506828
I28232
sI950506829
I24664
sI171513169
I27865
sI216601943
I27865
sI171513176
I27865
sI216601953
I27865
sI275977572
I34810
sI999960124
I34814
sI171513197
I27865
sI999960125
I34814
sI275977588
I34816
sI1098100286
I28235
sI979688777
I34810
sI917941825
I28234
sI917941826
I28234
sI171513237
I27865
sI275977631
I34816
sI275977632
I34816
sI275977633
I34816
sI171513253
I27865
sI916270663
I27865
sI171513261
I27865
sI915019183
I28236
sI171513265
I27865
sI851482036
I28234
sI851482037
I28234
sI916270665
I27865
sI916270666
I27865
sI171513281
I27865
sI171513292
I27865
sI171513296
I27865
sI171513322
I27865
sI916270675
I24664
sI976098815
I28230
sI976098816
I28230
sI976098817
I28230
sI976098818
I28230
sI171513353
I27865
sI171513354
I27865
sI1044104110
I34780
sI171513366
I27865
sI171519577
I34811
sI848893467
I28230
sI848893468
I28230
sI848893469
I28230
sI848893470
I28232
sI918459952
I27865
sI918459953
I27865
sI918459954
I27865
sI918459955
I27865
sI918459956
I34810
sI918459957
I34810
sI918459958
I34810
sI918459960
I34810
sI918459961
I34810
sI918459962
I34810
sI918459963
I27865
sI918459964
I34722
sI976098877
I28230
sI918459966
I27865
sI918459967
I27865
sI918459968
I34810
sI918459969
I28232
sI918459970
I28232
sI979703371
I34816
sI979703372
I34816
sI999960162
I34814
sI979703374
I34816
sI979703375
I34816
sI979703376
I28234
sI979703377
I28234
sI979703379
I34816
sI999960164
I28234
sI171513439
I35619
sI171513442
I35619
sI328013411
I28232
sI171519590
I34811
sI171513450
I35619
sI915019373
I28234
sI915019375
I28234
sI915019376
I28234
sI915019377
I28234
sI171513461
I35619
sI171513464
I35619
sI171513465
I35619
sI171513467
I35619
sI171513469
I35619
sI171513475
I35619
sI275977860
I34816
sI196351628
I24664
sI196351629
I24664
sI999960175
I34814
sI171513506
I35619
sI275977895
I34816
sI915019453
I28234
sI914986686
I27865
sI915019493
I28234
sI915025532
I28228
sI915025533
I28228
sI171519621
I34812
sI171513638
I28230
sI275984008
I28230
sI848631615
I27865
sI848631616
I27865
sI848631617
I27865
sI171519627
I34812
sI171519629
I34812
sI171513682
I28230
sI171519631
I34812
sI171519633
I34812
sI171519634
I34812
sI215652217
I28232
sI171513723
I27865
sI171513727
I27865
sI171525100
I28232
sI171525101
I28232
sI171513747
I27865
sI171519642
I34812
sI999960223
I34814
sI171513792
I27865
sI916270753
I27865
sI1060078583
I28235
sI275984034
I28230
sI1060078584
I28235
sI848561145
I34813
sI171519652
I34812
sI171519654
I34812
sI171513838
I27865
sI171519656
I34812
sI275978579
I34810
sI171513848
I35619
sI999960235
I34814
sI999960236
I34814
sI171513869
I35619
sI275984045
I28230
sI914998277
I34810
sI171519664
I34811
sI171525126
I28232
sI910366764
I34810
sI171513911
I27865
sI171513913
I27865
sI917379423
I27865
sI171513919
I27865
sI914987073
I27865
sI914987076
I27865
sI914987077
I27865
sI914987078
I27865
sI914987079
I27865
sI914987080
I27865
sI914987081
I27865
sI914987084
I27865
sI914987085
I27865
sI215652437
I28232
sI171519673
I34811
sI171513946
I27865
sI275984058
I28230
sI915036517
I34814
sI171513953
I27865
sI171513958
I27865
sI171513959
I27865
sI171513963
I27865
sI171513966
I27865
sI915019888
I28232
sI171513969
I27865
sI914987126
I34810
sI171513975
I27865
sI171513980
I27865
sI914987141
I27865
sI914987142
I27865
sI171514011
I27865
sI999960262
I34814
sI171514023
I27865
sI171514029
I27865
sI914987187
I34810
sI914987188
I34810
sI171514038
I27865
sI171519689
I34780
sI915019962
I28234
sI171514045
I27865
sI917379445
I27865
sI171514051
I27865
sI999960268
I34814
sI917379447
I27865
sI171514060
I27865
sI171519693
I34780
sI914987384
I34816
sI999960270
I28234
sI171514073
I27865
sI171514077
I27865
sI999960273
I28234
sI171514088
I27865
sI948246761
I34780
sI848632042
I27865
sI848632043
I27865
sI999960274
I28234
sI999960275
I28234
sI917379320
I24664
sI171514105
I28230
sI171519702
I34780
sI171514121
I28230
sI171514125
I27865
sI999960280
I28234
sI171514132
I28230
sI171519706
I34780
sI171519707
I34780
sI171514159
I28230
sI914987313
I28230
sI914987314
I28230
sI171514165
I35619
sI171514168
I28230
sI851488480
I28232
sI950311307
I28235
sI851488481
I28232
sI275978572
I34810
sI275978573
I34810
sI275978574
I34810
sI275978575
I34810
sI275978576
I34810
sI275978577
I34810
sI275978578
I34810
sI999960291
I34814
sI917379414
I27865
sI275978584
I34810
sI275978585
I34810
sI275978588
I34810
sI917379421
I27865
sI999960293
I34814
sI917379426
I34810
sI917379427
I34810
sI917379428
I27865
sI999960295
I34814
sI917379443
I27865
sI917379444
I27865
sI171514229
I27865
sI917379446
I27865
sI914987383
I34816
sI917379448
I27865
sI917379449
I27865
sI917379450
I27865
sI275984106
I28230
sI171519723
I34780
sI215652741
I34780
sI950311304
I28235
sI950311305
I28235
sI950311306
I28235
sI915020171
I28236
sI915020172
I28236
sI215652751
I34780
sI215652752
I34780
sI171514259
I27865
sI215652756
I34780
sI999960302
I34814
sI215652758
I34780
sI215652761
I34780
sI215652762
I34780
sI171514268
I28230
sI215652765
I34780
sI171514275
I28230
sI999960305
I34814
sI915036572
I34814
sI875076012
I27865
sI875076013
I27865
sI875076014
I27865
sI875076015
I27865
sI875076016
I34816
sI875076017
I34816
sI171519731
I34780
sI171519732
I34780
sI917379525
I27865
sI171514311
I28230
sI999960312
I34814
sI215652826
I34780
sI999960315
I34814
sI24883442
I24664
sI171514351
I28230
sI171514360
I28230
sI915036586
I34722
sI916270848
I28232
sI915036587
I34722
sI917379592
I27865
sI171514377
I28230
sI171519747
I34780
sI171519748
I34780
sI171514409
I28230
sI171514412
I28230
sI171514413
I28230
sI171514414
I28230
sI171519752
I34780
sI917379634
I27865
sI171514422
I28230
sI171514423
I27865
sI914987577
I24664
sI914987578
I24664
sI914987579
I24664
sI914987580
I24664
sI914987581
I24664
sI171514434
I27865
sI171514437
I28230
sI171525217
I28232
sI335458060
I28228
sI335458061
I28228
sI917379667
I27865
sI916276324
I28234
sI914987614
I24664
sI914987615
I24664
sI914987618
I24664
sI171514473
I28230
sI914987630
I24664
sI914987632
I34816
sI1045486014
I34813
sI916275613
I34814
sI171519764
I34780
sI919837306
I34810
sI1045486015
I34813
sI171514494
I28230
sI338844096
I28232
sI914987654
I24664
sI171514504
I28230
sI171514522
I28230
sI171514528
I27865
sI171525232
I28231
sI171514548
I28230
sI171514552
I28230
sI171514553
I28230
sI171514556
I28230
sI916276343
I28232
sI171514573
I28230
sI171530701
I34816
sI171514578
I28230
sI917379798
I27865
sI917379799
I27865
sI917379800
I27865
sI171514586
I28230
sI171514590
I28230
sI171514599
I28230
sI917379822
I27865
sI918461175
I24664
sI918461176
I27865
sI918461177
I27865
sI918461178
I24664
sI918461179
I24664
sI917379836
I27865
sI918461181
I34816
sI918461182
I34816
sI918461183
I28232
sI918461184
I28232
sI918461185
I34811
sI171514631
I28230
sI171514640
I28230
sI171525251
I28232
sI917379879
I34666
sI917379880
I34666
sI243541095
I28228
sI171514676
I28230
sI820452157
I34811
sI820452158
I34811
sI820452159
I34811
sI820452160
I34780
sI24883324
I34816
sI275159881
I34811
sI216603486
I34722
sI275159916
I34811
sI914987890
I27865
sI915020678
I34811
sI915020679
I34811
sI171525272
I28232
sI914987926
I27865
sI914987927
I27865
sI915025738
I34816
sI917380038
I34666
sI917380039
I34666
sI917380040
I34666
sI274373592
I27865
sI948247535
I34780
sI274373616
I34810
sI979704817
I34810
sI979704818
I34810
sI979704819
I34810
sI979704820
I34810
sI979704821
I27865
sI979704822
I28232
sI915020791
I28228
sI915020792
I28228
sI914988025
I27865
sI914988026
I27865
sI917380091
I27865
sI917380092
I27865
sI915020800
I28228
sI335458135
I28228
sI917380121
I27865
sI917380122
I27865
sI1039866912
I28230
sI1039866916
I34816
sI275160154
I28234
sI171515021
I28234
sI171515022
I28234
sI1111486317
I28234
sI171525315
I28232
sI917380245
I27865
sI917380246
I27865
sI171515031
I28234
sI917380248
I27865
sI917380249
I27865
sI917380250
I27865
sI917380251
I27865
sI171525318
I28232
sI917380278
I34810
sI917380279
I34810
sI917380280
I34810
sI917380281
I34810
sI917380282
I34810
sI171515071
I28230
sI171515072
I28230
sI171515077
I28230
sI221977802
I34810
sI221977803
I34810
sI221977804
I34810
sI171515087
I28230
sI221977808
I34810
sI221977810
I34814
sI335456184
I34811
sI1111486330
I34722
sI221977840
I34815
sI171515160
I28230
sI171515166
I28230
sI171515167
I28230
sI171515168
I28230
sI171515174
I28230
sI171515190
I28230
sI221977923
I34816
sI171519886
I34812
sI848895324
I28234
sI848895325
I28234
sI848895329
I34811
sI171519892
I34812
sI915031274
I28234
sI171515275
I28234
sI917380506
I34810
sI979698930
I28236
sI171515310
I34811
sI171520446
I28234
sI196297828
I34816
sI914988524
I34810
sI914988525
I34810
sI1054088686
I34816
sI171515380
I34811
sI917773813
I24664
sI216604152
I34722
sI171536298
I28232
sI171515403
I34811
sI976199205
I28230
sI976199206
I28230
sI24866737
I28234
sI171515433
I34811
sI171515436
I34811
sI915021357
I34815
sI915021358
I34815
sI915021359
I34815
sI915021360
I34815
sI915021361
I34815
sI221978162
I34813
sI918265395
I27865
sI917773879
I28232
sI917773880
I28232
sI275095097
I28230
sI914988607
I27865
sI917773888
I34780
sI915021383
I28232
sI915021384
I28232
sI915021386
I28230
sI171515468
I34811
sI171515475
I34811
sI914988629
I27865
sI915021398
I28232
sI171515482
I28234
sI914988638
I27865
sI914988639
I27865
sI914988641
I34810
sI914988642
I27865
sI171515491
I34811
sI171515493
I34811
sI171515503
I34811
sI842866288
I34816
sI915021425
I28230
sI842866290
I34816
sI842866291
I28230
sI842866292
I34816
sI171515512
I34811
sI171515516
I34811
sI275095168
I28230
sI275095170
I28230
sI275095171
I28230
sI275095173
I28230
sI914988693
I34810
sI914988696
I27865
sI914988698
I34810
sI914988699
I34810
sI171515571
I34811
sI922394295
I28230
sI922394296
I28230
sI922394297
I28230
sI922394298
I28230
sI915021503
I28230
sI171515584
I28230
sI171515625
I28230
sI171515628
I28230
sI171515632
I28230
sI171515640
I28230
sI171515645
I28230
sI171515672
I28230
sI171519962
I34780
sI171515680
I28230
sI171519963
I34780
sI171515697
I28230
sI171515699
I28230
sI171519968
I34780
sI171515718
I28230
sI171515733
I28230
sI171515751
I28234
sI171515752
I28234
sI171515772
I28234
sI171515775
I28234
sI171515776
I28230
sI918265729
I27865
sI171515778
I28234
sI979672968
I27865
sI979672969
I27865
sI171515786
I28234
sI979672972
I27865
sI979672973
I27865
sI171515791
I28234
sI171515797
I28234
sI915011037
I27865
sI171519983
I34780
sI916271089
I27865
sI171515820
I28234
sI24866803
I34780
sI171515828
I28234
sI171515830
I28234
sI171515841
I28234
sI171515845
I28234
sI171515846
I28234
sI171515852
I28234
sI914890701
I34780
sI914890702
I34780
sI171515855
I28234
sI1045503962
I27865
sI171515867
I28234
sI1045503964
I27865
sI1045503965
I27865
sI1045503966
I27865
sI1045503967
I27865
sI1045503968
I27865
sI1045503969
I27865
sI1045503970
I27865
sI1045503971
I27865
sI1045503972
I27865
sI1045503973
I27865
sI1045503974
I27865
sI1045503975
I27865
sI1045503976
I24664
sI1045503977
I24664
sI1045503978
I34816
sI1045503979
I34816
sI1045503980
I34816
sI916254717
I27865
sI24866815
I34780
sI24881312
I24664
sI171515918
I28234
sI171515922
I28234
sI171515925
I28234
sI171515928
I28234
sI171515934
I28234
sI24866822
I34780
sI922329134
I28234
sI922329135
I28234
sI922329136
I28234
sI922329137
I28234
sI922329138
I28234
sI922329139
I28234
sI922329140
I28234
sI922329141
I34780
sI171515958
I34811
sI922329143
I34780
sI922329144
I34780
sI922329145
I34780
sI922329146
I34780
sI922329147
I28234
sI922329148
I28234
sI915009546
I34810
sI1062903870
I34814
sI171515970
I34811
sI917381189
I28232
sI917381190
I34813
sI917381191
I34813
sI171515977
I34811
sI1062903882
I34814
sI171515991
I34811
sI24866833
I34780
sI171516008
I34811
sI171516011
I34811
sI171516015
I34811
sI171516017
I34811
sI1045491734
I34813
sI171516039
I34811
sI976199820
I27865
sI914989197
I34816
sI171516048
I34811
sI335454354
I34780
sI335454355
I34780
sI171516052
I34811
sI335454357
I34780
sI335454358
I34780
sI335454359
I34780
sI335454360
I34780
sI335454364
I34780
sI335454365
I34780
sI335454366
I34780
sI335454367
I34780
sI335454368
I34780
sI335454369
I34780
sI171516067
I34811
sI171516073
I34811
sI335454379
I34780
sI335454380
I34780
sI171516077
I34811
sI335454386
I34780
sI335454392
I34780
sI335454396
I34780
sI335454397
I34780
sI335454401
I34780
sI243540169
I28228
sI335454411
I34780
sI335454416
I28235
sI335454421
I28235
sI171516118
I34811
sI335454425
I28235
sI335454427
I34780
sI335454428
I34780
sI335454429
I34780
sI909353183
I34816
sI243540192
I28228
sI243540193
I28228
sI917381374
I34811
sI917381375
I34811
sI917381376
I34811
sI917381377
I34811
sI914989317
I24664
sI914989320
I34810
sI914989321
I34810
sI243540235
I28232
sI171516178
I34811
sI243540243
I28232
sI243540245
I28232
sI1120746899
I34780
sI171516209
I28234
sI24879412
I34810
sI24879419
I34810
sI950509905
I34816
sI171516243
I28234
sI171516255
I28234
sI171516262
I28234
sI171516266
I28234
sI171516269
I28234
sI171516276
I28234
sI243540345
I28236
sI335454586
I34814
sI335454587
I34814
sI24879487
I34810
sI24879493
I34810
sI24879513
I34810
sI335454632
I34813
sI24879532
I34810
sI335454639
I34813
sI243540402
I28236
sI24879540
I34810
sI243540409
I28236
sI243540415
I28236
sI243540423
I28236
sI171516365
I34811
sI171516369
I34811
sI918461180
I27865
sI335454701
I34722
sI335454709
I34722
sI335454711
I34722
sI243540494
I28236
sI24879643
I34810
sI24879648
I34810
sI917381669
I28228
sI24879654
I34810
sI24879658
I34810
sI24879670
I34810
sI24879671
I34810
sI243540553
I28232
sI171516492
I27865
sI171516496
I27865
sI171516497
I27865
sI171516503
I27865
sI171516505
I27865
sI171516510
I27865
sI171516511
I27865
sI243540579
I24664
sI243540580
I24664
sI171516517
I27865
sI171516519
I27865
sI275980904
I34815
sI243540586
I28232
sI335454828
I28230
sI335454829
I28230
sI24879728
I34810
sI335454835
I28230
sI171516532
I27865
sI335454837
I28230
sI335454838
I28230
sI243540599
I34666
sI335454840
I28230
sI335454841
I28230
sI171516538
I27865
sI335454843
I28230
sI335454844
I28230
sI243540605
I28232
sI243540606
I28232
sI24864966
I34816
sI915022465
I28234
sI915022466
I28234
sI243540615
I28232
sI243540616
I28232
sI243540618
I28232
sI243540619
I28232
sI243540620
I28232
sI24879757
I34810
sI915022480
I28234
sI243540626
I28232
sI243540627
I28232
sI243540628
I28232
sI275980952
I34816
sI171520111
I34814
sI171516574
I27865
sI335454880
I28230
sI171516578
I27865
sI24879780
I34810
sI918466673
I27865
sI24879787
I34810
sI243540660
I28232
sI914825913
I28230
sI914825914
I28230
sI243540669
I28232
sI243540670
I28232
sI243540673
I28232
sI275980996
I34816
sI275981001
I34816
sI918466679
I28232
sI243540684
I24664
sI243540689
I28231
sI243540692
I28231
sI243540693
I28231
sI243540698
I28231
sI916271226
I34810
sI243540712
I34810
sI916271228
I34810
sI243540715
I24664
sI916271229
I34810
sI171520126
I34814
sI171516662
I34810
sI243540730
I24664
sI335454981
I34813
sI243540755
I24664
sI243540759
I34816
sI171520132
I34814
sI243540772
I24664
sI171516709
I34810
sI243540778
I24664
sI243540779
I24664
sI171516716
I34816
sI243540781
I24664
sI171516718
I28230
sI243540783
I24664
sI171520136
I34814
sI335455035
I28230
sI171516739
I28230
sI335455046
I28230
sI171516743
I28230
sI171516744
I28230
sI171516745
I28230
sI335455051
I28230
sI335455052
I28230
sI171516751
I28230
sI171516753
I28230
sI243540820
I34810
sI171516757
I28230
sI171516758
I28230
sI171516760
I28230
sI171516761
I28230
sI171516763
I28230
sI24883345
I24664
sI171516778
I34810
sI243540846
I24664
sI335455088
I34813
sI171516786
I28230
sI171516792
I28230
sI914993300
I27865
sI243540859
I27865
sI335455102
I34813
sI171516803
I28230
sI335455108
I34813
sI243540869
I27865
sI335455111
I34813
sI243540872
I27865
sI171516811
I28230
sI171516812
I28230
sI335455117
I34813
sI335455121
I34813
sI24880019
I34810
sI335455129
I34813
sI24880040
I34810
sI243540909
I27865
sI24880046
I34810
sI243540911
I27865
sI24880052
I34810
sI243540923
I27865
sI335455165
I34814
sI335455166
I34814
sI335455167
I34814
sI335455168
I34814
sI24880069
I28232
sI1035412422
I34780
sI243540937
I27865
sI24880074
I28232
sI171516875
I28230
sI24880077
I28232
sI24880078
I28232
sI171516880
I28230
sI24880082
I28232
sI171516888
I28230
sI171516889
I28230
sI1121985498
I28234
sI1121985499
I28234
sI243540957
I28228
sI243540959
I28228
sI243540961
I28228
sI243540962
I28228
sI243540963
I34816
sI243540964
I34816
sI243540967
I34816
sI243540970
I34816
sI171516907
I28230
sI243540974
I34816
sI335455224
I34814
sI243540985
I34816
sI243540992
I34816
sI243540994
I34816
sI243540995
I34816
sI243540997
I34816
sI24880138
I28232
sI243541005
I34816
sI24880142
I28232
sI24880143
I28232
sI243541008
I34816
sI243541009
I34811
sI171516958
I28230
sI24880159
I28232
sI24880160
I28232
sI335455270
I34813
sI171516967
I28230
sI171516979
I28230
sI171516981
I28230
sI171516984
I28230
sI24880185
I28232
sI171516990
I28230
sI335455297
I34813
sI335455298
I34813
sI171516997
I28230
sI24880199
I28232
sI171517000
I28230
sI243541065
I34811
sI171517005
I28230
sI24880206
I28232
sI24880207
I28232
sI171517016
I28230
sI24880220
I28232
sI24880221
I28232
sI243541087
I34816
sI335455328
I34813
sI335455334
I34816
sI309601383
I34816
sI309601384
I34816
sI24880234
I28232
sI335455339
I34816
sI171517036
I28230
sI335455341
I34816
sI24880238
I28232
sI243541105
I28228
sI24880242
I28232
sI243541111
I34780
sI243541112
I34780
sI243541113
I34780
sI335455354
I28235
sI171517052
I28230
sI171520192
I34814
sI171517058
I28230
sI335455363
I28235
sI171517060
I28230
sI243541125
I34811
sI171517063
I28230
sI24880264
I28232
sI243541131
I34811
sI171517068
I28230
sI171535779
I28232
sI171517071
I28230
sI243541136
I34811
sI24880273
I28232
sI24880275
I28232
sI171517076
I28230
sI243541143
I28234
sI243541145
I28234
sI171517082
I28230
sI243541149
I28234
sI243541170
I28234
sI243541171
I28234
sI243541173
I28234
sI243541175
I28234
sI171517113
I28230
sI24880314
I28232
sI171517118
I28230
sI243541183
I28234
sI171517121
I28230
sI243541187
I28234
sI243541188
I28234
sI335455430
I28230
sI24880327
I34816
sI24880328
I34816
sI309601483
I27865
sI243541199
I34780
sI309601491
I34816
sI309601492
I34816
sI309601493
I34816
sI309601494
I34816
sI24880354
I28232
sI24880355
I28232
sI24880358
I28232
sI171517160
I28230
sI243541226
I34780
sI24880366
I28232
sI243541232
I34812
sI275981554
I28230
sI243541236
I34812
sI243541238
I34780
sI915031593
I34811
sI243541244
I34780
sI171517182
I28230
sI243541247
I34780
sI335455491
I28232
sI275981573
I28230
sI243541256
I34811
sI335455498
I28235
sI335455500
I34810
sI171517203
I28230
sI171517206
I28230
sI171517211
I34816
sI243541277
I34811
sI335455521
I28235
sI171517219
I28230
sI171517220
I28230
sI335455525
I28235
sI243541286
I34811
sI24880424
I34722
sI171517226
I34816
sI335455536
I28235
sI243541298
I28235
sI243541299
I34780
sI243541301
I34780
sI171517239
I28230
sI335455544
I28235
sI275981626
I34816
sI24880447
I34722
sI335455554
I28235
sI24880451
I34722
sI243541316
I28235
sI171517253
I28230
sI24880455
I34722
sI171517258
I28230
sI335455566
I28235
sI335455567
I28230
sI243541329
I28235
sI243541330
I28235
sI919512404
I34810
sI24880469
I34722
sI171517270
I34816
sI243541335
I28235
sI243541337
I28235
sI335455578
I28231
sI24880477
I28232
sI24880478
I34722
sI335455583
I28231
sI243541352
I28235
sI24880489
I34722
sI171517293
I34816
sI243541358
I28236
sI171517295
I34816
sI243541360
I28236
sI243541361
I28236
sI243541363
I34722
sI243541366
I34722
sI171517303
I34816
sI24880505
I28232
sI243541370
I34722
sI243541371
I34722
sI243541372
I34722
sI171517309
I34816
sI335455618
I34780
sI24880515
I28232
sI171517316
I28230
sI171517319
I28230
sI171517321
I34816
sI243541386
I34722
sI335455627
I28234
sI335455628
I34812
sI171517327
I28230
sI24880528
I34722
sI171517330
I28230
sI243541397
I34813
sI24880534
I28236
sI171517335
I28230
sI171517336
I28230
sI171517337
I28230
sI171517345
I28230
sI335455651
I34811
sI171517348
I28230
sI335455653
I34811
sI171517350
I28230
sI171517352
I28230
sI171517353
I28230
sI335455659
I34811
sI335455661
I34811
sI335455664
I34811
sI171517361
I28230
sI171517362
I28230
sI171517364
I28230
sI171517366
I28230
sI171517369
I28230
sI171517371
I28230
sI335455676
I34810
sI171517373
I28230
sI171517374
I28230
sI171517378
I28230
sI243541443
I28234
sI171517381
I28230
sI171517384
I28230
sI171517385
I28230
sI171517389
I28230
sI979707342
I34722
sI24880591
I28236
sI979707344
I34666
sI979707345
I34666
sI979707346
I34666
sI171517395
I28230
sI171517396
I28230
sI24880597
I28236
sI171517398
I34815
sI171517399
I28230
sI171517400
I28230
sI335455705
I34811
sI335455706
I34811
sI171517403
I34815
sI24880604
I28236
sI24880605
I28236
sI335455710
I34811
sI171517408
I28230
sI171517409
I28230
sI335455715
I34811
sI171517420
I28230
sI171517421
I28230
sI171517423
I28230
sI171517427
I28230
sI171517428
I28230
sI171517431
I28230
sI171517433
I28230
sI171517434
I34815
sI171517435
I34815
sI24880636
I28236
sI171517438
I28230
sI24880639
I28236
sI171517441
I28230
sI914990594
I34810
sI243541507
I34814
sI171517446
I34815
sI171517447
I34816
sI171517449
I34815
sI171517451
I28230
sI171517456
I28230
sI171517457
I28230
sI171517458
I28230
sI243541523
I28234
sI171517461
I28230
sI171517462
I28230
sI243541528
I28234
sI243541532
I28234
sI917382686
I24664
sI243541536
I28234
sI171517473
I34814
sI171517476
I34814
sI171521608
I28235
sI171517495
I34810
sI243541560
I28234
sI243541561
I28234
sI914990650
I34810
sI243541563
I28234
sI24880700
I28232
sI243541572
I34814
sI914892357
I28234
sI243541574
I28230
sI243541581
I28230
sI171517523
I34810
sI243541590
I34815
sI171517532
I34810
sI243541599
I34816
sI243541602
I34816
sI243541603
I34816
sI24880741
I28232
sI243541606
I34816
sI243541607
I34816
sI243541608
I34816
sI243541609
I34816
sI171517548
I34810
sI243541616
I34816
sI915023473
I28232
sI243541618
I34816
sI914990707
I34810
sI914990708
I34810
sI914990709
I34810
sI914990710
I34810
sI914990711
I34810
sI243541624
I34815
sI914990713
I34810
sI24880762
I24664
sI243541627
I34815
sI243541628
I34816
sI914990717
I34810
sI917710462
I28234
sI917710463
I28234
sI917710464
I28234
sI24880769
I24664
sI915023490
I28232
sI917710467
I28234
sI243541636
I34816
sI24880773
I24664
sI243541638
I34816
sI243541639
I34816
sI243541640
I34816
sI24880777
I24664
sI243541649
I34816
sI171517586
I34810
sI171517588
I34810
sI171517589
I34810
sI171517592
I34816
sI171517596
I34816
sI171517599
I34810
sI243541664
I34816
sI243541665
I34816
sI24880802
I24664
sI24880803
I24664
sI171517606
I34810
sI335455911
I28232
sI171517608
I34810
sI24867100
I34722
sI24880810
I24664
sI24880811
I24664
sI243541678
I34810
sI243541679
I34810
sI243541680
I34810
sI171517617
I34810
sI243541682
I34810
sI243541683
I34810
sI171517622
I34810
sI171517623
I34810
sI171517624
I34810
sI24880825
I24664
sI24883487
I24664
sI171517628
I34816
sI171517629
I34816
sI171517630
I34816
sI243541696
I34810
sI24880833
I24664
sI243541698
I34810
sI243541699
I34810
sI171517636
I34816
sI171517641
I28230
sI171517643
I28230
sI275982028
I34816
sI171517645
I28230
sI171517646
I28230
sI171517647
I28230
sI171517648
I28230
sI171517649
I34810
sI171517651
I34810
sI171517654
I34816
sI243541720
I28230
sI243541721
I28230
sI171517658
I34810
sI243541724
I28230
sI243541725
I34816
sI171517662
I34810
sI171517663
I34810
sI243541728
I34816
sI171517665
I34816
sI171517666
I34816
sI171517667
I34816
sI171517669
I34816
sI171517670
I34816
sI915023591
I28236
sI915023592
I28236
sI243541737
I34815
sI171517675
I34816
sI243541744
I34815
sI24880881
I24664
sI243541746
I34814
sI171517683
I34816
sI24880884
I24664
sI243541749
I34814
sI171517686
I34816
sI171517687
I34816
sI171517688
I34816
sI171517689
I34816
sI915023613
I34813
sI915023614
I34813
sI915023617
I28236
sI24880908
I24664
sI171517710
I34810
sI914990864
I34810
sI914990865
I34810
sI914990866
I34810
sI914990867
I34810
sI914990868
I34810
sI914990869
I34810
sI24880919
I24664
sI24880924
I24664
sI171517726
I34810
sI171517729
I34810
sI914958114
I28232
sI914990886
I34810
sI914990887
I34810
sI914990888
I34810
sI243541801
I34811
sI917382954
I24664
sI171517742
I34810
sI171517743
I34810
sI171517744
I34810
sI171517746
I34810
sI243541812
I34811
sI171517750
I34810
sI171517752
I34810
sI24880954
I24664
sI171517755
I34810
sI171517756
I34810
sI171517757
I34810
sI171517758
I34810
sI24880959
I24664
sI24880960
I24664
sI243541825
I34811
sI171517764
I34810
sI171517765
I34810
sI24880966
I24664
sI24880967
I24664
sI171517768
I34810
sI171517769
I34816
sI275982155
I28230
sI171517773
I34810
sI171517774
I34810
sI171517775
I34810
sI171517780
I34810
sI171517781
I34810
sI171517782
I34810
sI171517783
I34810
sI171517784
I34810
sI171517785
I34816
sI171517786
I34810
sI335456091
I34811
sI171517788
I34810
sI243541855
I34811
sI24880994
I24664
sI24880995
I24664
sI243541861
I34811
sI171517799
I34810
sI335456104
I34811
sI171517801
I34810
sI24881002
I24664
sI171517803
I34810
sI171517804
I34810
sI171517805
I34810
sI171517808
I34810
sI171517809
I34810
sI171517810
I34810
sI171517812
I34810
sI171517813
I34810
sI24881014
I24664
sI24881015
I24664
sI171517816
I34810
sI335456121
I34811
sI171517818
I34810
sI171517820
I34810
sI171517821
I34810
sI171517823
I34810
sI171517824
I34810
sI243541894
I34811
sI243541895
I34811
sI335456137
I34811
sI215656330
I34810
sI335456140
I34811
sI215656333
I34810
sI914990990
I34810
sI964740760
I34816
sI243541906
I28234
sI916268947
I27865
sI917383067
I34811
sI171517852
I34810
sI215656349
I34810
sI335456158
I34811
sI948247536
I34780
sI335456164
I34811
sI24881062
I28232
sI914827175
I28230
sI914827176
I28230
sI335456171
I34811
sI335456172
I34811
sI335456173
I34811
sI243541934
I28230
sI335456175
I34811
sI948255657
I28235
sI918464436
I27865
sI335456181
I34811
sI171517878
I34810
sI171517879
I34810
sI918464440
I27865
sI918464441
I27865
sI918464442
I34810
sI918464443
I34810
sI335456188
I34811
sI918464445
I34810
sI24881086
I28232
sI918464447
I34810
sI335456192
I34811
sI915056577
I34816
sI918464450
I28230
sI918464451
I28230
sI918464452
I34810
sI335456197
I34811
sI918464454
I28236
sI171517895
I34810
sI918464456
I28234
sI243541961
I28230
sI918464458
I27865
sI918464459
I27865
sI171517900
I34810
sI918464461
I28230
sI243541967
I28230
sI171517904
I34810
sI918464465
I34810
sI918464466
I27865
sI171517907
I34810
sI171517909
I34810
sI243541974
I28230
sI917380089
I27865
sI171517913
I34810
sI243541981
I28230
sI171517918
I34810
sI243541983
I28230
sI243541985
I28230
sI243541986
I28230
sI171517923
I34810
sI171517925
I34810
sI171517926
I34810
sI24881128
I24664
sI171517930
I34810
sI171517933
I34810
sI335456239
I34811
sI171517936
I34810
sI171517937
I34810
sI171517938
I34810
sI171517941
I34810
sI243542006
I28230
sI171517945
I34810
sI243542010
I28230
sI171517947
I34810
sI243542012
I28230
sI243542013
I28230
sI171517950
I34810
sI171517951
I34810
sI171517954
I34810
sI916269060
I27865
sI171517957
I34810
sI171517961
I34810
sI171517962
I34810
sI24867159
I28235
sI171517967
I34810
sI171517969
I34810
sI171517970
I34810
sI916269075
I34810
sI171517972
I34810
sI171517973
I34810
sI335456279
I34780
sI171517976
I34810
sI171517977
I34810
sI171517978
I34810
sI171517980
I34810
sI335456285
I34780
sI171517982
I34810
sI171517984
I34810
sI914991137
I34810
sI243542056
I27865
sI243542057
I27865
sI243542060
I27865
sI24867165
I28235
sI171518003
I34810
sI335456308
I34780
sI171518005
I34810
sI171518006
I34810
sI916269111
I24664
sI916269112
I24664
sI24881209
I28232
sI914991162
I34810
sI335456316
I34780
sI24881215
I28232
sI335456324
I34780
sI335456325
I34780
sI335456326
I34780
sI335456327
I34780
sI335456328
I34780
sI171518025
I34810
sI171518026
I34810
sI171518029
I34810
sI171518030
I34810
sI171518031
I34810
sI24881232
I28232
sI171518033
I34810
sI171518034
I34810
sI171518037
I34810
sI171518038
I34810
sI171518040
I34810
sI171518042
I34810
sI171518043
I34810
sI171518044
I34810
sI171518045
I34810
sI171518046
I34810
sI171518050
I34810
sI171518052
I34810
sI171518053
I34810
sI335456358
I28228
sI335456360
I28228
sI171518057
I34810
sI171518058
I34810
sI171518061
I34810
sI171518064
I28230
sI171518065
I28230
sI171518066
I28230
sI243542131
I27865
sI171518069
I28230
sI24881271
I28232
sI243542137
I27865
sI171518074
I34816
sI243542139
I27865
sI24881276
I28232
sI335456382
I28228
sI171518079
I34816
sI171518080
I34816
sI171518081
I34816
sI171518083
I34816
sI171518084
I34816
sI171518085
I34816
sI243542150
I27865
sI24881287
I28232
sI171518089
I34816
sI171518092
I34816
sI171518093
I34816
sI171518094
I34816
sI171518095
I34816
sI243542160
I27865
sI171518098
I34816
sI171518099
I34816
sI171518100
I34816
sI24881301
I28232
sI171518103
I34816
sI171518104
I34816
sI171518105
I34816
sI171518106
I34816
sI171518107
I34816
sI24881308
I24664
sI24881309
I24664
sI171518110
I34816
sI171518111
I34816
sI171518112
I34816
sI24881314
I24664
sI24881315
I24664
sI335456420
I34816
sI24881317
I24664
sI171518118
I34816
sI24881319
I24664
sI171518120
I34816
sI171518121
I34816
sI335456426
I28235
sI24881323
I24664
sI171518126
I34816
sI171518127
I34816
sI171518128
I34816
sI171518129
I34816
sI171518130
I34816
sI215675251
I28230
sI243542197
I34810
sI243542198
I34810
sI243542199
I34810
sI243542200
I34810
sI24867188
I28235
sI335456442
I28235
sI335456444
I28235
sI171525834
I28232
sI171518142
I34816
sI171518143
I34816
sI171518146
I34816
sI171518147
I34816
sI171518149
I34816
sI171518151
I34816
sI215656650
I28230
sI243542219
I34810
sI335456461
I34780
sI171518158
I34816
sI215656655
I28230
sI171518160
I34816
sI243542226
I34810
sI335456468
I34780
sI171518165
I34816
sI335456472
I34780
sI171518169
I34816
sI171518171
I34816
sI914991324
I24664
sI171518173
I34816
sI243542238
I27865
sI24881375
I24664
sI171518176
I34816
sI171518177
I34816
sI171518178
I34816
sI24881379
I24664
sI917383399
I24664
sI917383400
I24664
sI335456491
I34780
sI335456494
I34816
sI335456495
I34816
sI243542256
I27865
sI171518193
I34810
sI24881395
I24664
sI24881397
I24664
sI171518200
I34816
sI275990228
I34780
sI171518202
I34816
sI171518213
I34816
sI171518215
I34816
sI915024138
I28228
sI275982603
I28230
sI171518221
I34816
sI243542289
I27865
sI919930585
I34810
sI171518234
I34816
sI171518235
I34816
sI171518236
I34816
sI171525850
I28232
sI171518238
I34816
sI171518240
I34810
sI171518242
I34816
sI171518244
I34810
sI171518248
I34810
sI916276956
I34722
sI171518252
I34810
sI171518253
I34810
sI335456558
I34780
sI243542319
I27865
sI243542320
I27865
sI171518257
I34816
sI171518258
I34816
sI171518260
I34816
sI171518262
I34816
sI243542328
I27865
sI914991417
I24664
sI171518267
I34816
sI171518268
I34816
sI243542333
I27865
sI24881470
I28232
sI171518271
I34816
sI243542337
I27865
sI24881474
I28232
sI171518275
I34816
sI171518277
I34816
sI171518278
I34816
sI338872033
I34780
sI171518280
I34816
sI171518281
I34816
sI171518282
I34816
sI243542348
I27865
sI171518291
I34816
sI171518292
I34816
sI171518296
I34816
sI171518297
I34816
sI171518298
I34816
sI171518299
I34816
sI171518300
I34816
sI243542365
I28234
sI243542369
I28235
sI243542371
I34814
sI914991461
I24664
sI171518310
I34816
sI914991463
I24664
sI171518312
I34816
sI914991465
I24664
sI914991466
I24664
sI171518316
I34816
sI171518317
I34816
sI24881519
I24664
sI24881520
I24664
sI171518321
I34816
sI24881522
I24664
sI24881523
I24664
sI171518324
I34816
sI171518325
I34816
sI171518326
I34816
sI171518327
I34816
sI171518328
I34816
sI171518329
I34816
sI171518330
I34816
sI171518331
I34816
sI24881532
I24664
sI171518333
I34816
sI171518334
I34816
sI171518336
I34816
sI171518339
I34816
sI171518341
I34816
sI24881542
I24664
sI171518343
I34816
sI171518344
I34816
sI171518345
I34816
sI171518346
I34816
sI171518347
I34816
sI24881548
I24664
sI275982733
I28230
sI171518351
I34815
sI171518355
I34816
sI24881556
I24664
sI171518360
I34816
sI171518361
I34815
sI171518362
I34815
sI24881563
I24664
sI171518364
I34815
sI171518365
I34816
sI171518369
I34815
sI171518371
I34815
sI171518374
I34815
sI171518375
I34815
sI24881576
I24664
sI171518377
I34815
sI24881578
I24664
sI171518381
I34815
sI24881582
I24664
sI914991536
I24664
sI171518386
I34815
sI171518387
I34815
sI171518388
I34815
sI24881589
I24664
sI171518396
I34815
sI24881597
I28232
sI24881598
I24664
sI171518399
I34815
sI24881600
I24664
sI171518401
I34815
sI171518402
I34815
sI171518403
I34815
sI24881604
I24664
sI24881607
I24664
sI24881610
I24664
sI171518412
I34814
sI171518414
I34814
sI171518415
I34814
sI171518416
I34814
sI916269522
I27865
sI916269523
I27865
sI171518424
I34814
sI171518425
I34814
sI171518432
I34814
sI171518433
I34814
sI171518435
I34814
sI24881642
I34816
sI171518443
I34814
sI24881645
I34816
sI171518447
I34814
sI171518454
I34814
sI171518459
I34814
sI24881660
I34816
sI171518461
I34814
sI171518465
I34814
sI171518472
I34815
sI171518479
I34815
sI171518482
I34815
sI171518483
I34816
sI171518489
I34815
sI171518490
I34815
sI171518491
I34815
sI171518492
I34815
sI171518493
I34815
sI171518494
I34815
sI171518508
I34815
sI914991667
I34816
sI914991668
I34816
sI171518521
I34815
sI171518523
I34814
sI914991680
I28230
sI914991681
I28230
sI914991682
I24664
sI171518531
I34814
sI171518533
I34814
sI171518545
I34815
sI171518551
I34815
sI275982943
I34810
sI171518565
I34810
sI171518568
I34810
sI171518569
I34816
sI171518570
I34810
sI171518574
I34810
sI171518576
I34810
sI171518577
I34810
sI171518578
I34810
sI171518579
I34816
sI171518581
I34816
sI171518582
I34816
sI171518583
I34816
sI171518584
I34816
sI171518585
I34816
sI915024506
I24664
sI171518590
I34810
sI171518593
I34816
sI171518594
I34816
sI171518595
I34816
sI171518596
I34816
sI171518597
I34816
sI171518600
I34810
sI171518601
I34810
sI171518602
I34810
sI171518603
I34810
sI171518604
I34810
sI171518605
I34810
sI171518606
I34810
sI171518607
I34810
sI171518608
I34810
sI171518609
I34810
sI171518610
I34810
sI171518612
I34810
sI171518613
I34810
sI171518614
I34810
sI171518615
I34816
sI171518616
I34816
sI171518617
I34810
sI171518618
I34816
sI171518619
I34816
sI171518620
I34816
sI171518621
I34810
sI171518622
I34810
sI171518623
I34810
sI171518624
I34810
sI171518627
I34810
sI171518629
I34816
sI171518634
I34816
sI171518635
I34816
sI916269740
I28231
sI171518637
I34816
sI171518638
I34816
sI171518640
I34816
sI171518642
I34816
sI171518643
I34816
sI171518644
I34816
sI171518645
I34816
sI171518646
I34816
sI915024567
I28232
sI171518648
I34816
sI171518649
I34816
sI171518651
I34816
sI171518652
I34816
sI171518656
I34816
sI171518657
I34816
sI171518659
I34816
sI171518660
I34816
sI171518661
I34816
sI171518662
I34816
sI171518663
I34816
sI171518665
I34816
sI171518666
I34816
sI171518667
I34816
sI171518669
I34816
sI171518671
I34816
sI171518673
I34816
sI915024594
I28230
sI171518680
I34816
sI171518683
I34816
sI915024605
I28232
sI915024606
I28232
sI171518688
I34810
sI914991841
I24664
sI171518690
I34810
sI916269796
I34810
sI171518693
I34810
sI171518695
I34810
sI171518699
I34810
sI171518701
I34810
sI171518703
I34810
sI171518704
I34810
sI171518706
I34810
sI171518714
I34810
sI171518715
I34810
sI915024636
I28234
sI915024637
I28234
sI915024638
I28234
sI915024639
I28234
sI171518722
I34816
sI171518728
I34810
sI171518729
I34810
sI171518737
I34810
sI171518738
I34810
sI171518740
I34810
sI171518753
I34810
sI171518754
I34810
sI914991908
I34666
sI914991909
I34666
sI171518758
I34816
sI171518760
I34816
sI171518764
I34816
sI171518771
I34816
sI171518775
I34816
sI171518779
I34816
sI976137025
I24664
sI976137026
I24664
sI976137027
I24664
sI171518793
I34816
sI171518795
I34816
sI171518798
I34816
sI275983184
I28232
sI275983185
I28232
sI171518802
I34816
sI171518810
I34816
sI171518823
I34816
sI171518829
I34815
sI171518832
I34815
sI1122085749
I34780
sI1122085751
I34780
sI171518850
I34816
sI1045506952
I34813
sI1045506953
I34813
sI1045506954
I34813
sI171518859
I34816
sI1045506956
I34813
sI171518866
I34816
sI171518886
I34815
sI171518895
I34815
sI171518906
I34815
sI171518910
I34815
sI1045491748
I34813
sI171518914
I34816
sI171518915
I34816
sI171518916
I34816
sI171518921
I34816
sI914992085
I27865
sI914992086
I27865
sI171518941
I34816
sI171518957
I28234
sI914992119
I27865
sI914992120
I27865
sI171518979
I28234
sI171518980
I28234
sI171518987
I28234
sI171518997
I28234
sI171519003
I28234
sI171519005
I28234
sI275983397
I28232
sI276016166
I34811
sI948251687
I34722
sI275983400
I28232
sI276016172
I34810
sI171519024
I28234
sI171519029
I34780
sI276016184
I28232
sI171519037
I34780
sI171519039
I34780
sI171519040
I34780
sI171519041
I34780
sI171519042
I34780
sI171519044
I34780
sI171519045
I34780
sI171519046
I34780
sI275983431
I28232
sI275983432
I28232
sI171519049
I34780
sI171519055
I34780
sI171519056
I34780
sI171519060
I28234
sI276016215
I24664
sI276016219
I24664
sI276016220
I24664
sI276016221
I24664
sI275983468
I28232
sI335458835
I34816
sI171519094
I34780
sI171519096
I34780
sI171519099
I34780
sI171519107
I28230
sI171519110
I28230
sI171519111
I28230
sI243543188
I24664
sI243543189
I24664
sI171519134
I34814
sI275990386
I34722
sI171519176
I28234
sI914992329
I27865
sI171519178
I28234
sI1045448568
I34813
sI171519186
I28234
sI171519191
I28234
sI171519215
I28234
sI1061989625
I28230
sI1061989626
I28230
sI1061989627
I28230
sI1061989628
I28230
sI1061989629
I28230
sI1061989630
I28230
sI1061989631
I28230
sI1061989632
I28230
sI1061989633
I28230
sI1061989634
I28230
sI1061989635
I28230
sI1061989636
I28230
sI1061989637
I28230
sI1061989638
I28230
sI1061989639
I28230
sI1061989640
I28230
sI1061989641
I28230
sI1061989642
I28230
sI1062907147
I28230
sI1061989644
I28230
sI1061989645
I28230
sI1062907150
I28230
sI1061989647
I28230
sI1061989648
I28230
sI171519249
I28234
sI1061989646
I28230
sI1062907155
I34816
sI1062907156
I34816
sI171519253
I28234
sI1062907158
I34816
sI1062907159
I34816
sI171519259
I28234
sI171519264
I28234
sI171519270
I28234
sI171519276
I28234
sI1060089137
I34813
sI1060089138
I34813
sI1060089139
I34813
sI1060089140
I34813
sI1060089141
I34813
sI1060089142
I34813
sI1060089143
I34813
sI1060089144
I34813
sI1060089145
I34813
sI1060089146
I34813
sI1060089147
I34813
sI1060089148
I34813
sI1060089149
I34813
sI171519294
I28234
sI1060089151
I34813
sI1060089152
I34813
sI1060089153
I34813
sI914992465
I27865
sI171519325
I28234
sI275983714
I28232
sI915025254
I28228
sI914992487
I27865
sI915025256
I28228
sI915025257
I28228
sI915025258
I28228
sI914992491
I27865
sI171519343
I34780
sI171519345
I34780
sI275983732
I28232
sI275983737
I28232
sI171519354
I34780
sI171519355
I34780
sI171519357
I34780
sI171519358
I34780
sI171519359
I34780
sI171519361
I34780
sI171519363
I34780
sI171519364
I34780
sI171519365
I34780
sI171519366
I34780
sI914992519
I27865
sI914992520
I27865
sI171519369
I34780
sI171519370
I34780
sI171519371
I34780
sI171519372
I34780
sI171519373
I34780
sI171519376
I34780
sI171519377
I34780
sI171519379
I34780
sI171519380
I34780
sI171519382
I34780
sI171519383
I34780
sI171519385
I34780
sI171519392
I34780
sI171519395
I34780
sI171519396
I34780
sI171519399
I34780
sI171519402
I34780
sI171519414
I34780
sI171519415
I34780
sI171519417
I34780
sI171519421
I34780
sI171519424
I34780
sI1060089283
I34813
sI171519428
I34780
sI171519429
I34780
sI171519430
I34780
sI171519431
I34780
sI916270536
I28230
sI916270537
I28230
sI916270538
I28230
sI916270539
I28230
sI171519439
I34780
sI171519441
I34780
sI915042894
I28228
sI171519450
I34780
sI851472975
I34810
sI171519454
I34780
sI171519456
I34780
sI851472976
I34810
sI171519461
I34780
sI171519462
I34780
sI171519463
I34780
sI171519464
I34780
sI171519465
I34780
sI171519466
I34780
sI275983852
I35619
sI171519469
I34780
sI171519477
I34780
sI171519478
I34780
sI171519480
I34780
sI171519482
I34780
sI171519485
I34780
sI171519489
I34780
sI171519492
I34780
sI171519494
I34780
sI171519498
I34780
sI171519499
I34780
sI171519501
I34812
sI914992655
I24664
sI914992656
I24664
sI914992657
I24664
sI171519507
I34780
sI171519509
I34780
sI171519510
I34780
sI171519512
I34780
sI171519514
I34780
sI171519518
I34780
sI171519519
I34780
sI171519520
I34780
sI171519524
I34812
sI915015601
I24664
sI275983913
I28230
sI222001718
I34815
sI1060089389
I28235
sI1060089390
I34780
sI1060089391
I34780
sI999960121
I34814
sI999960122
I34814
sI999960123
I34814
sI1098100284
I28235
sI1098100285
I28235
sI999960126
I34814
sI999960127
I34814
sI999960128
I34814
sI999960129
I34814
sI999960130
I34814
sI999960131
I34814
sI999960132
I34814
sI999960133
I34814
sI916270662
I27865
sI999960135
I34814
sI916270664
I27865
sI999960137
I34814
sI999960138
I34814
sI999960139
I34814
sI999960140
I34814
sI999960141
I34814
sI999960142
I34814
sI999960143
I34814
sI999960144
I34814
sI999960145
I34814
sI999960146
I34814
sI999960147
I34814
sI999960148
I34814
sI999960149
I34814
sI999960150
I34814
sI999960151
I34814
sI999960152
I34814
sI999960153
I34814
sI999960154
I34814
sI999960155
I34814
sI999960156
I34814
sI999960157
I34814
sI999960158
I34814
sI999960159
I34814
sI999960160
I34814
sI999960161
I34814
sI878521954
I27865
sI999960163
I34814
sI878521956
I27865
sI999960165
I28234
sI999960166
I28234
sI999960167
I28234
sI999960168
I28234
sI999960169
I28234
sI999960170
I28234
sI999960171
I28234
sI999960172
I28234
sI999960173
I28234
sI999960174
I34814
sI171519599
I34812
sI999960176
I34814
sI999960177
I34814
sI999960178
I34814
sI999960179
I34814
sI999960180
I34814
sI999960181
I34814
sI999960182
I34814
sI999960183
I34814
sI999960184
I34814
sI999960185
I34814
sI999960186
I34814
sI999960187
I34814
sI999960188
I34814
sI999960189
I34814
sI999960190
I34814
sI999960191
I34814
sI999960192
I34814
sI999960193
I34814
sI999960194
I34814
sI999960195
I34814
sI999960196
I34814
sI999960197
I34814
sI999960198
I34814
sI999960199
I34814
sI999960200
I34814
sI999960201
I34814
sI999960202
I34814
sI999960203
I34814
sI999960204
I34814
sI999960205
I34814
sI999960206
I34814
sI999960207
I34814
sI999960208
I34814
sI999960209
I34814
sI999960210
I34814
sI999960211
I34814
sI999960212
I34814
sI999960213
I34814
sI999960214
I34814
sI999960215
I34814
sI999960216
I34814
sI999960217
I34814
sI999960218
I34814
sI999960219
I34814
sI999960220
I34814
sI999960221
I34814
sI999960222
I34814
sI171519647
I34812
sI999960224
I34814
sI999960225
I34814
sI999960226
I34814
sI999960227
I34814
sI999960228
I34814
sI999960229
I34814
sI999960230
I34814
sI999960231
I34814
sI999960232
I34814
sI999960233
I34814
sI999960234
I34814
sI916270763
I34816
sI171519660
I34811
sI999960237
I34814
sI999960238
I34814
sI999960239
I34814
sI999960240
I34814
sI999960241
I34814
sI999960242
I34814
sI999960243
I34814
sI999960244
I34814
sI999960245
I34814
sI999960246
I34814
sI999960247
I34814
sI999960248
I34814
sI999960249
I34814
sI999960250
I34814
sI999960251
I34814
sI999960252
I34814
sI999960253
I34814
sI999960254
I34814
sI999960255
I34814
sI999960256
I34814
sI999960257
I34814
sI999960258
I34814
sI999960259
I34814
sI999960260
I34814
sI999960261
I34814
sI171519686
I34780
sI999960263
I34814
sI999960264
I34814
sI999960265
I34814
sI999960266
I34814
sI999960267
I28234
sI171519692
I34780
sI999960269
I28234
sI171519694
I34780
sI999960271
I28234
sI999960272
I28234
sI171519697
I34780
sI171519698
I34780
sI171519699
I34780
sI171519700
I34780
sI999960277
I28234
sI999960278
I28234
sI999960279
I28234
sI171519704
I34780
sI999960281
I28234
sI999960282
I28234
sI999960283
I28234
sI999960284
I28234
sI999960285
I28234
sI999960286
I28234
sI999960287
I28234
sI999960288
I34814
sI999960289
I34814
sI851488482
I28232
sI171519715
I34780
sI851488484
I28232
sI171519717
I34780
sI999960294
I34814
sI171519719
I34780
sI999960296
I34814
sI171519721
I34780
sI999960298
I34814
sI999960299
I34814
sI171519724
I34780
sI999960301
I34814
sI171519726
I34780
sI999960303
I34814
sI999960304
I34814
sI171519729
I34780
sI171519730
I34780
sI999960307
I34814
sI999960308
I34814
sI999960309
I34814
sI999960310
I34814
sI999960311
I34814
sI171519736
I34780
sI999960313
I34814
sI999960314
I34814
sI171519739
I34780
sI999960316
I34814
sI999960317
I34814
sI999960318
I34814
sI999960319
I34814
sI171519744
I34780
sI999960321
I34814
sI999960322
I34814
sI999960323
I34814
sI999960324
I34814
sI999960325
I34814
sI999960326
I34814
sI999960327
I34814
sI999960328
I34814
sI999960329
I34814
sI999960330
I34814
sI999960331
I34814
sI999960332
I34814
sI171519757
I34780
sI999960334
I34814
sI999960335
I34814
sI999960336
I34814
sI999960337
I34814
sI999960338
I34814
sI999960339
I34814
sI999960340
I34814
sI999960341
I34814
sI335458073
I28228
sI1060089630
I28235
sI335458082
I28228
sI335458083
I28228
sI919514924
I34816
sI919514925
I34816
sI171519790
I34813
sI171519792
I34813
sI171519797
I34780
sI171519798
I34780
sI171519804
I34813
sI171519807
I34813
sI915025736
I34816
sI915025737
I34816
sI171519818
I34780
sI915025739
I34816
sI171519821
I34780
sI171519823
I34812
sI171519824
I34812
sI171519827
I34812
sI171519829
I34812
sI335458134
I28228
sI171519831
I34812
sI171519832
I34812
sI171519833
I34812
sI171519835
I34812
sI171519836
I34812
sI171519842
I34811
sI171519846
I34812
sI914992999
I28230
sI914993000
I28230
sI914993006
I28230
sI171519858
I34811
sI171519859
I34812
sI171519860
I34812
sI171519862
I34812
sI171519863
I34812
sI171519867
I34812
sI171519870
I34812
sI219852673
I28232
sI219852674
I28232
sI335458183
I28228
sI914993038
I28230
sI171519887
I34780
sI171519888
I34812
sI171519889
I34812
sI335458194
I28228
sI171519891
I34780
sI914993044
I24664
sI914993045
I24664
sI171519895
I34780
sI171519896
I34812
sI914991533
I24664
sI171519906
I34780
sI171519909
I34780
sI171519910
I34780
sI171519911
I34780
sI171519912
I34780
sI171519915
I34780
sI171519917
I34780
sI979688776
I34810
sI171519923
I34780
sI171519925
I34780
sI171519927
I34780
sI171519929
I34780
sI171519931
I34780
sI979688778
I27865
sI171519934
I34780
sI1045486923
I28235
sI171519940
I34780
sI979688780
I27865
sI171519951
I34780
sI171519953
I34780
sI171519955
I34780
sI171519956
I34780
sI171531598
I24664
sI171519961
I34780
sI914993114
I24664
sI914993115
I24664
sI171519965
I34780
sI276017120
I24664
sI171519969
I34780
sI171519971
I34780
sI171519973
I34780
sI24883174
I24664
sI171519975
I34780
sI171519978
I34780
sI171519980
I34780
sI171519981
I34780
sI916271086
I27865
sI916271087
I27865
sI171519984
I34780
sI171519985
I34780
sI171519986
I34780
sI979688787
I27865
sI171519992
I34780
sI171519995
I34780
sI916271786
I27865
sI171531605
I24664
sI1061991084
I34816
sI171520015
I34811
sI171520017
I34811
sI915026606
I24664
sI915026607
I24664
sI171520032
I34780
sI1045486939
I28235
sI171520038
I34780
sI171520040
I34780
sI915037532
I24664
sI171520046
I34780
sI171520047
I34780
sI171520051
I34780
sI171520063
I34780
sI171520064
I34780
sI171520065
I34780
sI916271170
I28232
sI171520069
I34780
sI171520070
I34780
sI914993223
I28230
sI914993224
I28230
sI915037540
I24664
sI915026015
I34814
sI918466665
I27865
sI918466666
I27865
sI918466667
I27865
sI918466668
I27865
sI918466669
I27865
sI918466670
I27865
sI918466671
I24664
sI918466672
I27865
sI171520113
I34814
sI918466674
I27865
sI918466675
I27865
sI918466676
I24664
sI918466677
I34810
sI918466678
I34810
sI171520119
I34814
sI918466680
I27865
sI918466681
I24664
sI918466682
I34810
sI918466683
I34810
sI918466684
I27865
sI918466685
I34810
sI918466686
I27865
sI918466687
I27865
sI918466688
I27865
sI918466689
I24664
sI918466690
I24664
sI918466691
I24664
sI918466692
I28232
sI918466693
I28232
sI918466694
I34810
sI918466695
I27865
sI918466696
I28228
sI171520139
I34814
sI171520143
I34814
sI171520144
I34814
sI171520145
I34814
sI171520146
I34814
sI171520147
I34814
sI171520148
I34814
sI171520151
I34814
sI915026074
I34814
sI171520155
I34814
sI171520156
I34814
sI171520158
I34814
sI171520162
I34814
sI171520163
I34814
sI171520166
I34814
sI171520167
I34814
sI24883370
I24664
sI171520177
I34814
sI171520178
I34814
sI24883380
I24664
sI171520187
I34814
sI171520189
I34814
sI335458496
I28228
sI171517334
I28230
sI171520201
I34814
sI24883403
I34816
sI24883404
I34816
sI275984594
I35619
sI275984595
I35619
sI171531641
I34816
sI275984601
I35619
sI275984602
I35619
sI171520219
I34814
sI275984604
I35619
sI171520229
I28234
sI24883430
I24664
sI24883441
I24664
sI171520242
I28234
sI24883444
I24664
sI171520258
I34814
sI171520261
I34814
sI1084043537
I34810
sI24883476
I24664
sI171520277
I28234
sI275984663
I35619
sI275984664
I35619
sI24883486
I24664
sI335458591
I28232
sI24883494
I24664
sI24883495
I24664
sI24883497
I24664
sI171520298
I28234
sI24883500
I24664
sI171520305
I34814
sI171520310
I34814
sI171520311
I34814
sI171520312
I34814
sI171520316
I34814
sI335458622
I28235
sI171520329
I28234
sI171520334
I28234
sI275984724
I27865
sI171520341
I34814
sI335458650
I28232
sI171520353
I34814
sI171520354
I34814
sI171520355
I34814
sI171520357
I34814
sI171520360
I34814
sI171520363
I34814
sI915026292
I24664
sI915026293
I24664
sI915026294
I24664
sI915026295
I24664
sI171520378
I34814
sI171520386
I28234
sI171520388
I28234
sI171531670
I24664
sI335458701
I28232
sI335458702
I28232
sI171520426
I28234
sI171520432
I28234
sI335458744
I28232
sI1061991156
I34816
sI914993598
I34816
sI171520457
I28234
sI335458787
I28228
sI171520493
I28234
sI171520510
I28234
sI171520513
I28234
sI276017921
I34813
sI335458826
I28228
sI171520523
I28234
sI171520524
I28234
sI1046000386
I28232
sI335458830
I28228
sI1060286991
I34780
sI1060286992
I34780
sI171520531
I28234
sI171520532
I28234
sI171520534
I28234
sI171520547
I34813
sI171520554
I34813
sI171520557
I34813
sI171520565
I34813
sI171520569
I34813
sI171520572
I34813
sI171520577
I34813
sI171520579
I34813
sI171520582
I34813
sI171520583
I34813
sI171520584
I34813
sI171520585
I34813
sI171520587
I34814
sI171520588
I34814
sI171520593
I34814
sI171520600
I34814
sI916271705
I34810
sI171520602
I34814
sI335458911
I28232
sI335458912
I28232
sI24881377
I24664
sI950153848
I35619
sI950153849
I35619
sI950153850
I35619
sI950153851
I35619
sI950153852
I35619
sI950153853
I35619
sI915026558
I28236
sI915026559
I28236
sI950153856
I35619
sI950153857
I35619
sI950153858
I35619
sI950153859
I35619
sI950153860
I35619
sI950153861
I35619
sI976143943
I28230
sI171520653
I34814
sI171520658
I34814
sI171520662
I34814
sI171520664
I34814
sI914829985
I28230
sI171520674
I34814
sI171520677
I34814
sI915026602
I24664
sI915026603
I24664
sI915026604
I24664
sI915026605
I24664
sI1061991086
I34816
sI1061991087
I34816
sI914993845
I27865
sI914993846
I27865
sI916271803
I34810
sI916271805
I34810
sI335459030
I28232
sI171520737
I34814
sI171520743
I34814
sI171520744
I34722
sI171525055
I28232
sI171520751
I34814
sI1061991154
I34816
sI1061991155
I34816
sI171520756
I34722
sI1061991157
I34816
sI915026686
I34811
sI915026687
I34811
sI1046000385
I28232
sI276017922
I34813
sI171520773
I34813
sI171520779
I34813
sI171520781
I34813
sI171520783
I34813
sI171520785
I34813
sI915026734
I34811
sI171520798
I34722
sI171520801
I34722
sI949531428
I34780
sI915026733
I34811
sI171520814
I34722
sI196987016
I28232
sI171520818
I34722
sI171520820
I34722
sI171520825
I34813
sI171520827
I34813
sI171520831
I34722
sI171520833
I34813
sI171520834
I34722
sI171520836
I34722
sI171520841
I34722
sI171520853
I34722
sI171520854
I34722
sI171520855
I34722
sI171520856
I34722
sI171520858
I34722
sI171520861
I34722
sI171520862
I34722
sI915026783
I28228
sI171520864
I34722
sI171520865
I34722
sI915026786
I28228
sI171520867
I34722
sI171520868
I34722
sI275499154
I34780
sI335462924
I27865
sI171520898
I34722
sI335459208
I34816
sI171515373
I34811
sI335459232
I34810
sI335459234
I34810
sI171520933
I34722
sI1061991335
I34816
sI1061991336
I34816
sI1061991337
I34816
sI1061991338
I34816
sI171520942
I34722
sI335459252
I34810
sI335459254
I34810
sI915026871
I34811
sI915026872
I34811
sI171520964
I34722
sI171520968
I34722
sI171520971
I34722
sI171520973
I34722
sI171520975
I34722
sI171520982
I28236
sI171520983
I28236
sI335459292
I24664
sI914994158
I34810
sI171531773
I24664
sI171521010
I28236
sI171521012
I28236
sI171521013
I28236
sI171521015
I28236
sI171521020
I28236
sI171521021
I28236
sI171521024
I28236
sI704033795
I28228
sI171521044
I34813
sI171521050
I34813
sI171521057
I34813
sI171521058
I34813
sI171521060
I34813
sI171521061
I34813
sI171521065
I34813
sI915026782
I28228
sI171521079
I34813
sI171521080
I34813
sI171521082
I34813
sI171520863
I34722
sI171531786
I24664
sI171521086
I34813
sI914994239
I34810
sI914994240
I34810
sI914994241
I34810
sI914994242
I34810
sI914994243
I34810
sI914994244
I34810
sI915026785
I28228
sI171521097
I34780
sI171521105
I34780
sI916272211
I27865
sI171521109
I28235
sI171521112
I34813
sI171521119
I34813
sI171521121
I28235
sI171521124
I28235
sI171521127
I28235
sI171521128
I28235
sI916272233
I27865
sI916272234
I27865
sI916272235
I27865
sI916272236
I27865
sI171521135
I28235
sI171521137
I28235
sI171521139
I28235
sI171521142
I28235
sI171521144
I28235
sI171520639
I34814
sI171521148
I34813
sI171521152
I34813
sI171521154
I34813
sI171521156
I34813
sI171521157
I34813
sI171521158
I34813
sI171521160
I34813
sI171521161
I34813
sI171521162
I34813
sI171521164
I34813
sI171521165
I34813
sI171521166
I34813
sI171521168
I34813
sI915027090
I28228
sI171521171
I34813
sI171521175
I34813
sI171521180
I34813
sI171521181
I34813
sI171521182
I34813
sI171521183
I34813
sI171521186
I34813
sI171521187
I34813
sI171521190
I34813
sI171521191
I34813
sI171521193
I34813
sI171521195
I34813
sI171521196
I34813
sI171521197
I34813
sI171521198
I34813
sI216609967
I34780
sI171521200
I34813
sI171521202
I34813
sI950154420
I35619
sI171521205
I34813
sI171521206
I34813
sI171521207
I34813
sI171521209
I34813
sI171521210
I34813
sI171521211
I34813
sI171521213
I34813
sI171521215
I34813
sI171521216
I34813
sI171521217
I34813
sI171521218
I34813
sI171521220
I34813
sI915027141
I28232
sI915027142
I28232
sI915027143
I28232
sI171521224
I34813
sI171521225
I34813
sI171521227
I34813
sI171521229
I34813
sI171521230
I34813
sI171521231
I34813
sI171521233
I28235
sI171521234
I28235
sI171521235
I28235
sI171521236
I28235
sI171521240
I28235
sI171521241
I34813
sI171521242
I34813
sI171521243
I28235
sI171521244
I28235
sI171521245
I28235
sI171521246
I28235
sI171521248
I28235
sI171521249
I28235
sI171521250
I28235
sI171521251
I28235
sI171521252
I34813
sI171521253
I34813
sI851850470
I34814
sI851850471
I34814
sI914994408
I34810
sI914994409
I34810
sI914994410
I24664
sI914994411
I24664
sI171521260
I34813
sI916272365
I27865
sI914994414
I27865
sI914994415
I27865
sI914994416
I27865
sI914994417
I34810
sI335459570
I27865
sI335459572
I27865
sI171521270
I34813
sI171521271
I28235
sI171521273
I34813
sI335459579
I27865
sI171521277
I28235
sI171521278
I28235
sI335459583
I27865
sI335459585
I27865
sI171521282
I28235
sI171521288
I28235
sI275985673
I34810
sI171521296
I34813
sI171521297
I34813
sI171521298
I34813
sI171521302
I28235
sI171521308
I34780
sI171521311
I34780
sI922334498
I27865
sI922334499
I28232
sI922334500
I28232
sI922334501
I28232
sI922334502
I28232
sI922334503
I34810
sI171521320
I28235
sI171521322
I28235
sI171521323
I28235
sI171521324
I28235
sI918265394
I27865
sI171521326
I34780
sI171521333
I34780
sI275985725
I27865
sI275985731
I27865
sI171521348
I34780
sI171521352
I34780
sI275985739
I27865
sI171521360
I34780
sI171521361
I34780
sI171521373
I34780
sI171521376
I34780
sI171521383
I28235
sI171521385
I28235
sI171521388
I28235
sI171521395
I28235
sI171521396
I28235
sI171521397
I28235
sI171521400
I28235
sI171521403
I28235
sI171521404
I28235
sI171521405
I28235
sI171521407
I28235
sI335459713
I27865
sI335459714
I27865
sI171521411
I28235
sI171521412
I28235
sI914994565
I24664
sI171521414
I28235
sI171521415
I28235
sI171521417
I28235
sI171521422
I28235
sI171521423
I28235
sI171521424
I28235
sI171521426
I28235
sI171521428
I28235
sI171521429
I34780
sI171521433
I28235
sI171521435
I28235
sI275985834
I27865
sI335455305
I34816
sI915005001
I24664
sI171521470
I34780
sI171521471
I34780
sI171521472
I34780
sI171521474
I34780
sI171521484
I34780
sI171521485
I34780
sI335459790
I27865
sI976139727
I27865
sI171521488
I34780
sI976139729
I27865
sI976139730
I27865
sI171521493
I34780
sI171521495
I34780
sI851850712
I28232
sI851850713
I28232
sI171521499
I34780
sI171521502
I34780
sI171521504
I34780
sI850872571
I28232
sI171526396
I28232
sI171521514
I34780
sI171521519
I34780
sI171521521
I34780
sI171521522
I34780
sI335459828
I34810
sI171521527
I34780
sI24884728
I28228
sI171521532
I34780
sI24884738
I28228
sI171521545
I34780
sI850872579
I28232
sI171521558
I34780
sI171521561
I34780
sI916272671
I27865
sI171521571
I34780
sI171521574
I34780
sI171521578
I34780
sI171521582
I34780
sI24884783
I28228
sI171521585
I34780
sI171521586
I34780
sI171521588
I34780
sI171521591
I34780
sI171521593
I34780
sI171521594
I34780
sI171521598
I34780
sI171521600
I34780
sI171521601
I34780
sI914994755
I24664
sI914994756
I24664
sI914994757
I24664
sI914994758
I24664
sI914994759
I24664
sI914994760
I34810
sI914994761
I34810
sI171521610
I28235
sI915027531
I24664
sI171521615
I28235
sI171521616
I28235
sI171521618
I28235
sI171521619
I28235
sI171521621
I28235
sI171521623
I28235
sI171521625
I28235
sI171521629
I28235
sI171521631
I28235
sI171521632
I28235
sI171521633
I28235
sI171521634
I28235
sI171521635
I28235
sI171521636
I28235
sI171521637
I28235
sI171521638
I28235
sI171521641
I28235
sI171521642
I28235
sI171521643
I28235
sI915032338
I34811
sI171521649
I28235
sI171521652
I28235
sI171521654
I28235
sI171521655
I28235
sI171510036
I28234
sI335459962
I28232
sI171521659
I28235
sI171521661
I28235
sI171521662
I28235
sI171521663
I28235
sI171521667
I28235
sI171521668
I28235
sI171521671
I28235
sI171521675
I28235
sI171521677
I28235
sI1061992078
I34810
sI1061992079
I34810
sI1061992080
I34810
sI1061992081
I34810
sI914994834
I34810
sI914994835
I34810
sI171521685
I28235
sI171521690
I28235
sI842866287
I34816
sI171521694
I28235
sI335459999
I28232
sI335460000
I28232
sI914994849
I34810
sI914994852
I34810
sI914994853
I34810
sI842866289
I34816
sI171521704
I28235
sI171521711
I34780
sI171521713
I34780
sI171521716
I34780
sI171521717
I34780
sI171521718
I34780
sI171521722
I34780
sI171521724
I34780
sI171521729
I34780
sI171521730
I34780
sI171521736
I34780
sI171521739
I34780
sI171521740
I34780
sI171521743
I34780
sI171521746
I34780
sI171521749
I34780
sI171521750
I34780
sI171521751
I34780
sI171521752
I34780
sI171521756
I34780
sI171521761
I34780
sI171521765
I34780
sI171521767
I34780
sI24884972
I28228
sI171521775
I34780
sI171521780
I34780
sI171521784
I34780
sI171521785
I34813
sI171521786
I34813
sI171521787
I34813
sI171521788
I34813
sI171521789
I34813
sI171521790
I34722
sI275986175
I27865
sI171521794
I34813
sI171521795
I34813
sI171521798
I34813
sI216610567
I28236
sI171521800
I34813
sI216610569
I28236
sI171521802
I34722
sI216610571
I28236
sI275986188
I27865
sI171521806
I34722
sI171521812
I34813
sI915027734
I24664
sI171521816
I34722
sI171521818
I34722
sI171521820
I34722
sI24885021
I28228
sI171521825
I34813
sI171521830
I34813
sI999962409
I34814
sI275986222
I27865
sI915027759
I34814
sI915027760
I34814
sI171521841
I34813
sI171521842
I34813
sI171521845
I34813
sI171521846
I34813
sI171521850
I28236
sI171521852
I34813
sI171521853
I34813
sI171521858
I34813
sI171521859
I34813
sI275163835
I28234
sI171521865
I34813
sI171521866
I34813
sI171521867
I34813
sI1025062732
I34780
sI171521870
I34813
sI171521871
I34813
sI171521873
I34813
sI171521875
I34813
sI171521878
I34813
sI171521881
I34813
sI171521882
I34813
sI171521883
I34813
sI171521885
I34813
sI171521887
I34813
sI171521890
I34813
sI171521891
I34813
sI171521895
I28235
sI171521897
I28235
sI171521898
I34813
sI171521899
I28235
sI171521901
I34813
sI171521902
I34813
sI171521903
I34813
sI171521905
I34813
sI171521909
I34813
sI171521910
I34813
sI914995063
I24664
sI914995064
I24664
sI171521914
I28235
sI916273020
I24664
sI171521926
I28235
sI171521927
I34722
sI171521929
I34722
sI275986314
I34810
sI171521931
I34722
sI171521933
I34722
sI171521934
I34722
sI171521937
I34722
sI171521938
I28236
sI171521940
I28236
sI171521945
I28236
sI171521946
I28236
sI171521947
I28236
sI171521949
I28236
sI171521952
I28236
sI171521954
I28236
sI171521959
I28236
sI171521962
I28236
sI916273067
I28230
sI171521969
I34813
sI171521970
I34813
sI916273075
I28236
sI171521972
I34813
sI171521974
I28236
sI171521976
I28236
sI171521977
I28236
sI171521978
I28236
sI171521979
I28236
sI171521980
I28236
sI171521981
I28236
sI171521982
I34813
sI171521984
I34813
sI171521986
I34813
sI915016011
I28230
sI171521988
I28236
sI171521990
I28236
sI916273096
I28234
sI171521993
I28236
sI1025062864
I34780
sI171522017
I28236
sI171522023
I28236
sI171522025
I28236
sI875149295
I27865
sI875149296
I27865
sI171522036
I34813
sI171522044
I34813
sI171522046
I34813
sI171522048
I34813
sI171522051
I34813
sI171522052
I34813
sI1062385669
I28230
sI1062385670
I34815
sI1062385671
I34815
sI1062385672
I34815
sI1062385673
I34815
sI171522058
I34813
sI1062385675
I34815
sI1062385676
I34815
sI1062385677
I34816
sI1062385678
I34816
sI1062385679
I34816
sI1062385680
I34816
sI171522065
I34813
sI171522066
I34813
sI171522067
I34813
sI171522068
I28235
sI171522069
I28235
sI171522070
I28235
sI171522071
I28235
sI171522076
I28235
sI171522080
I28235
sI171522082
I28235
sI914995235
I24664
sI171522084
I28235
sI171522089
I28235
sI171522090
I28235
sI171522092
I28235
sI171522093
I28235
sI171522097
I28235
sI171522098
I28235
sI171522101
I28235
sI171522102
I28235
sI171522110
I28235
sI171522121
I28235
sI171522122
I28235
sI171522125
I28235
sI171522133
I28235
sI171522138
I28235
sI171522140
I28235
sI171522149
I28235
sI171522150
I28235
sI171522151
I28235
sI171522152
I28235
sI915028073
I28234
sI915028074
I28234
sI999962731
I34814
sI999962733
I34814
sI171522158
I28235
sI171522159
I28235
sI171522162
I28235
sI171522166
I28235
sI171522168
I28235
sI171522169
I28235
sI171522176
I28235
sI171522183
I28235
sI171522185
I28235
sI171522186
I28235
sI171522191
I28235
sI915028112
I34811
sI171522193
I28235
sI171522194
I28235
sI171522196
I28235
sI915028119
I34811
sI915028120
I34811
sI171522203
I28235
sI950089886
I28232
sI950089887
I28232
sI950089888
I28232
sI171522210
I28235
sI915028131
I34811
sI889534628
I34814
sI889534629
I28234
sI889534630
I28234
sI915028135
I34814
sI915028136
I34814
sI171522219
I28235
sI171522223
I28235
sI275986609
I34810
sI171522226
I28235
sI171522230
I28235
sI171522231
I28235
sI915032436
I34813
sI171522234
I28235
sI171522237
I28235
sI915028159
I34811
sI915028160
I34811
sI915028161
I34811
sI915028162
I34811
sI915028163
I34811
sI171522244
I34780
sI171522245
I34780
sI171522265
I28235
sI171522269
I28235
sI171522270
I28235
sI171522276
I28235
sI171522277
I28235
sI171522279
I28235
sI171522287
I28235
sI171522290
I28235
sI916273396
I28236
sI171522295
I28235
sI171522303
I28235
sI914995456
I28232
sI275986691
I34810
sI335460619
I28235
sI335460638
I28236
sI171522337
I28235
sI171522383
I28228
sI916273489
I24664
sI916273490
I24664
sI171518301
I34816
sI171522400
I34811
sI1044691297
I28235
sI1044691298
I28235
sI171522435
I34811
sI914995596
I28232
sI880294291
I34815
sI880294292
I34815
sI880294293
I34815
sI880294294
I34815
sI880294295
I34815
sI880294296
I34815
sI880294297
I34815
sI880294298
I34815
sI880294299
I34815
sI880294300
I34815
sI275986873
I34810
sI171522512
I34816
sI335455340
I34816
sI914995672
I28232
sI914995673
I28232
sI171522537
I34811
sI171522543
I34811
sI171521107
I34780
sI338835969
I28232
sI275986947
I28231
sI171522564
I34811
sI275986949
I28231
sI851472971
I28230
sI335456433
I28235
sI950090253
I34814
sI950090254
I34814
sI950090255
I34814
sI1098103337
I34780
sI1098103338
I34780
sI171522603
I34811
sI171522612
I34811
sI171522620
I34811
sI171522622
I34811
sI171522631
I34816
sI171522632
I34816
sI171522646
I34811
sI171522666
I34811
sI171522671
I34811
sI171522675
I34811
sI915037453
I28234
sI916273792
I24664
sI916273793
I34814
sI916273794
I34814
sI338836101
I28232
sI338836102
I28232
sI915028631
I28236
sI915028632
I28236
sI1060289177
I34780
sI915028634
I28236
sI171522716
I34811
sI171522717
I34811
sI171522719
I34811
sI171522729
I34811
sI916273840
I34811
sI171522751
I34811
sI171522752
I34811
sI171522779
I34811
sI915028718
I28234
sI999963423
I34814
sI275987232
I24664
sI999963426
I34814
sI880294699
I28232
sI880294701
I34810
sI880294702
I34810
sI880294705
I28231
sI171522896
I34816
sI335459718
I27865
sI171522919
I34816
sI216615400
I34816
sI916274040
I24664
sI171522938
I34780
sI171522939
I34780
sI171522940
I34780
sI171522941
I34780
sI171522942
I34780
sI949533570
I28235
sI171522960
I34780
sI171522961
I34780
sI171522962
I34780
sI171522969
I34780
sI171522972
I34780
sI171522978
I34780
sI948255653
I34722
sI171522982
I34780
sI171522983
I34780
sI171522984
I34780
sI171522985
I34780
sI171522986
I34780
sI948255661
I34813
sI171522995
I34780
sI24866272
I34810
sI1004420025
I28228
sI171523008
I34780
sI171523009
I34780
sI171523012
I34780
sI171523017
I34780
sI275987405
I24664
sI243541833
I28234
sI171523031
I34780
sI171523032
I34780
sI171523039
I34780
sI171523046
I34780
sI171523047
I34780
sI171523048
I34780
sI171523052
I34780
sI171523053
I34780
sI171523054
I28228
sI171523061
I34780
sI171523064
I34780
sI171523066
I34780
sI171523067
I34780
sI171523071
I34780
sI171519612
I34812
sI171523075
I34780
sI335456450
I28235
sI171523082
I34780
sI171523084
I28228
sI915029005
I28232
sI171523086
I28228
sI915029007
I28232
sI915029008
I28232
sI171523089
I28228
sI171523090
I34780
sI171523091
I28228
sI171521199
I34813
sI171523100
I34780
sI171523101
I34780
sI171523102
I28228
sI171523103
I28228
sI171523104
I28228
sI171523106
I28228
sI171523107
I28228
sI171523130
I34816
sI909327429
I34816
sI171523148
I34816
sI1063304273
I28230
sI338869332
I24664
sI1063304277
I28230
sI1063304280
I28230
sI171523161
I28228
sI335461467
I27865
sI275987548
I24664
sI338869342
I24664
sI889535583
I28234
sI889535584
I28230
sI171523169
I28228
sI171523170
I28228
sI889535587
I28230
sI171523179
I28228
sI275987574
I34810
sI914996357
I27865
sI914996358
I27865
sI171523207
I28228
sI171523211
I28228
sI171521799
I34813
sI171523222
I28228
sI171523225
I28228
sI171523226
I28228
sI171521221
I34813
sI171523243
I28228
sI338869421
I34780
sI338869423
I34780
sI171523248
I28228
sI915027144
I28232
sI171523254
I28228
sI171523255
I28228
sI338836680
I28232
sI171523274
I28228
sI171523275
I28228
sI914996431
I27865
sI171523280
I28228
sI171523281
I28228
sI171523282
I28228
sI171523286
I28228
sI171523288
I28228
sI171523291
I28228
sI916274399
I34811
sI171523296
I28228
sI918469857
I28232
sI918469858
I27865
sI918469859
I27865
sI918469861
I24664
sI918469862
I24664
sI878263527
I34780
sI918469864
I27865
sI171523305
I28228
sI171523306
I28228
sI171523308
I28228
sI918469869
I34814
sI918469870
I24664
sI171523311
I28228
sI171523318
I28228
sI171523321
I28228
sI171523324
I28228
sI171523327
I28228
sI918265728
I27865
sI171523330
I28228
sI171523336
I28228
sI916274457
I34811
sI916274458
I34811
sI275499567
I34780
sI171523361
I28228
sI275987747
I24664
sI916274468
I28228
sI275987749
I24664
sI275987750
I24664
sI275499569
I34780
sI275987756
I24664
sI171523374
I28228
sI275987760
I24664
sI171523386
I28228
sI171523390
I28228
sI171523394
I28228
sI171523395
I28228
sI335461703
I34810
sI275987788
I24664
sI171523409
I28228
sI335461714
I34810
sI275987796
I24664
sI171523413
I28228
sI171523416
I28228
sI275987807
I24664
sI275987808
I24664
sI275987809
I24664
sI171523426
I28228
sI171523427
I28228
sI275987812
I24664
sI171521254
I34813
sI171523430
I28228
sI171523431
I28228
sI275987816
I24664
sI275987817
I24664
sI275987818
I24664
sI275987819
I24664
sI275987820
I24664
sI171521256
I34813
sI171523444
I28228
sI171521257
I34813
sI171523448
I28228
sI275987833
I24664
sI275987835
I24664
sI171521258
I34813
sI171523454
I28228
sI171521259
I34813
sI1120746887
I28235
sI275987849
I24664
sI171523467
I28228
sI1120746893
I34813
sI914994413
I27865
sI915008019
I27865
sI171523473
I28228
sI171523475
I28228
sI1120746900
I34780
sI916272366
I27865
sI1120746902
I28235
sI1120746903
I34780
sI275987864
I24664
sI915029401
I28228
sI916272367
I27865
sI171521264
I34813
sI171523490
I28228
sI171523491
I28228
sI275987878
I24664
sI335459569
I27865
sI999960134
I34814
sI171521266
I34813
sI275987890
I24664
sI915042893
I28228
sI171523509
I28228
sI275987896
I24664
sI171521268
I34813
sI275987899
I24664
sI914996669
I27865
sI914996670
I27865
sI171523523
I34816
sI335461836
I24664
sI275987920
I24664
sI335461843
I24664
sI335461844
I24664
sI335461845
I24664
sI335461846
I24664
sI335461847
I24664
sI335461848
I24664
sI335461852
I24664
sI914996701
I34810
sI171523550
I28228
sI999960136
I34814
sI171523561
I28228
sI171523566
I28228
sI171523579
I28228
sI171523580
I28228
sI171521281
I28235
sI848576017
I34780
sI848576018
I34780
sI914996758
I27865
sI171526745
I28236
sI171523613
I27865
sI914996766
I27865
sI914996767
I27865
sI171523617
I27865
sI914996776
I27865
sI914996777
I27865
sI914996778
I27865
sI275988025
I24664
sI914996798
I34810
sI914996799
I27865
sI914996800
I27865
sI335461955
I24664
sI914996807
I27865
sI275988041
I24664
sI275988043
I24664
sI914996817
I27865
sI335461990
I24664
sI335461991
I24664
sI1120747126
I34780
sI1120747127
I28235
sI1120747128
I34780
sI1120747130
I34780
sI1120747131
I34780
sI1120747132
I34813
sI1120747136
I28235
sI1120747137
I28235
sI1120747138
I28235
sI275988099
I24664
sI1120747155
I28235
sI338869909
I34780
sI338869910
I34780
sI338869911
I34780
sI275496612
I28228
sI275496629
I28228
sI916274880
I34811
sI338869953
I34813
sI171521314
I34780
sI976142031
I34815
sI976142032
I34815
sI976142033
I34815
sI171519636
I34812
sI171523807
I34810
sI24881575
I28232
sI916274918
I34811
sI916274919
I34811
sI914996999
I28232
sI914997000
I28232
sI916274964
I28232
sI171523866
I34810
sI1045503963
I27865
sI275496740
I28228
sI916274995
I28234
sI916274996
I28234
sI916274998
I28232
sI171523905
I34810
sI338870086
I34780
sI338870087
I34780
sI338870088
I34780
sI842907466
I27865
sI842907467
I27865
sI171523921
I34810
sI868818915
I28231
sI1120747352
I34780
sI171515876
I28234
sI964804446
I34816
sI964804447
I34816
sI964804448
I34816
sI949534563
I34780
sI171515878
I28234
sI275496819
I34811
sI171523961
I34810
sI915046225
I28234
sI171523967
I34810
sI338870147
I34780
sI171523975
I34810
sI275496842
I34812
sI1060080279
I28235
sI275496844
I34812
sI275117378
I34815
sI171521347
I34780
sI171523993
I34810
sI1060080282
I28235
sI1060080283
I28235
sI171524006
I34810
sI1060080284
I28235
sI171524025
I34810
sI916275132
I28228
sI916275133
I28228
sI216612798
I24664
sI916275135
I28228
sI171524032
I34810
sI171521355
I34780
sI171524043
I34810
sI335462354
I24664
sI275988435
I24664
sI171524076
I34810
sI171524077
I34810
sI976142323
I28230
sI976142324
I28230
sI171524085
I34810
sI976142326
I28230
sI916275200
I34814
sI916275201
I34814
sI171524099
I34810
sI275496976
I28234
sI171524121
I34810
sI914964517
I28232
sI171524145
I34810
sI171524156
I34810
sI1120747596
I34780
sI1120747598
I28235
sI1120747599
I34780
sI1120747600
I34780
sI916275282
I34811
sI916275283
I34811
sI916275298
I28234
sI916275299
I28234
sI916275300
I28234
sI916275301
I28234
sI335465148
I34814
sI914997364
I28232
sI1044693145
I28235
sI171524250
I34810
sI1044693147
I28235
sI1044693148
I28235
sI1044693149
I28235
sI1044693150
I28235
sI1044693151
I28235
sI171524259
I34810
sI916275365
I28228
sI914997416
I28232
sI1120747703
I28235
sI914997455
I27865
sI1103128713
I28234
sI335462612
I24664
sI335462615
I28232
sI335462616
I28232
sI914997465
I27865
sI914997468
I27865
sI171524323
I34810
sI916275447
I28234
sI916275448
I28234
sI1045479690
I34813
sI1045479691
I34813
sI1045479692
I34813
sI1045479693
I34813
sI1045479694
I34813
sI1045479695
I34813
sI1045479696
I34813
sI1045479697
I34813
sI1045479698
I34813
sI1045479699
I34813
sI1045479700
I34813
sI1045479701
I34813
sI1045479702
I34813
sI1045479703
I34813
sI1045479704
I34813
sI1045479705
I34813
sI1045479706
I34813
sI1045479707
I34813
sI1045479708
I34813
sI1045479709
I34813
sI1045479710
I34813
sI1045479711
I34813
sI1045479712
I34813
sI1045479713
I34813
sI1045479714
I34813
sI1045479715
I34813
sI1045479716
I34813
sI916275493
I34811
sI1045479718
I34813
sI1045479719
I34813
sI1045479720
I34813
sI1045479721
I34813
sI1045479722
I34813
sI1045479723
I34813
sI1045479724
I34813
sI1045479725
I34813
sI1045479726
I34813
sI1045479727
I34813
sI1045479728
I34813
sI171524417
I34810
sI922329142
I34780
sI916275531
I34816
sI916275532
I34816
sI916275533
I34816
sI916275534
I34816
sI171524436
I34810
sI1120747864
I28235
sI216613210
I34722
sI216613211
I34722
sI916275552
I34780
sI916275553
I34780
sI916275560
I28228
sI916275561
I28228
sI915030388
I28230
sI171524498
I34810
sI915030419
I24664
sI335462813
I27865
sI916275614
I34814
sI335462815
I27865
sI335462824
I27865
sI335462826
I27865
sI335462828
I27865
sI335462831
I27865
sI916275634
I28234
sI916275635
I28234
sI1062903881
I34814
sI171524540
I34810
sI171524546
I34810
sI335462857
I24664
sI335462864
I24664
sI916275678
I28232
sI914964964
I34814
sI914964965
I34814
sI914964971
I34814
sI335462892
I27865
sI171524589
I34810
sI338870766
I28230
sI171524591
I24664
sI171524592
I24664
sI335462898
I27865
sI335462901
I27865
sI335462904
I27865
sI335462908
I27865
sI171521450
I34780
sI171524620
I24664
sI338870797
I28232
sI338870798
I28232
sI171524623
I34810
sI914965016
I34814
sI335462937
I34810
sI335462939
I34810
sI1062388263
I34816
sI1062388264
I34810
sI335462976
I27865
sI171524678
I34810
sI916275794
I28234
sI916275795
I28234
sI171524706
I34810
sI338870888
I34810
sI916275817
I34811
sI915030634
I34811
sI915030635
I34811
sI335463023
I34816
sI335463024
I27865
sI335463031
I27865
sI171524731
I34810
sI335463039
I27865
sI338870913
I34810
sI915030658
I28234
sI171524739
I34810
sI914997892
I27865
sI914997893
I27865
sI171524743
I34810
sI171524744
I34810
sI171524745
I34810
sI171524748
I34810
sI171524750
I34810
sI171524751
I34810
sI171524752
I34810
sI171524753
I34810
sI915030680
I28236
sI915030681
I28236
sI915030682
I28236
sI915030683
I28236
sI916275869
I28236
sI916275870
I28236
sI916275871
I28236
sI916275872
I28236
sI335463073
I27865
sI916275874
I28236
sI171524771
I34810
sI916275876
I28236
sI916275877
I28236
sI916275878
I28236
sI916275879
I28236
sI916275880
I28236
sI171524777
I34810
sI335463082
I27865
sI171524780
I34810
sI914965170
I34810
sI338870968
I28234
sI338870969
I28234
sI335463098
I27865
sI957565728
I34815
sI171524810
I34810
sI275497688
I28234
sI914997979
I27865
sI914997980
I27865
sI171524831
I28231
sI976139728
I27865
sI171524834
I34810
sI338871020
I28235
sI275989253
I34810
sI275989254
I34810
sI171521496
I34780
sI171524891
I34810
sI1045480223
I34813
sI1045480224
I34813
sI1045480225
I34813
sI1045480226
I34813
sI1045480227
I34813
sI1045480228
I34813
sI1045480229
I34813
sI1045480230
I34813
sI1045480231
I34813
sI1045480232
I34813
sI1045480233
I34813
sI1045480234
I34813
sI1045480235
I34813
sI1045480236
I34813
sI1045480237
I34813
sI1045480238
I34813
sI1045480239
I34813
sI1045480240
I34813
sI1045480241
I34813
sI1045480242
I34813
sI1045480243
I34813
sI1045480244
I34813
sI335463221
I34811
sI1045480246
I34813
sI1045480247
I34813
sI1045480248
I34813
sI1045480249
I34813
sI1045480250
I34813
sI1045480251
I34813
sI1045480252
I34813
sI1045480253
I34813
sI1045480254
I34813
sI1045480255
I34813
sI1045480256
I34813
sI1045480257
I34813
sI1045480258
I34813
sI1045480259
I34813
sI1045480260
I34813
sI1045480261
I34813
sI1045480262
I34813
sI1045480263
I34813
sI1045480264
I34813
sI1045480265
I34813
sI1045480266
I34813
sI1045480267
I34813
sI1045480268
I34813
sI1045480269
I34813
sI1045480271
I34813
sI1045480272
I34813
sI1045480273
I34813
sI1045480274
I34813
sI1045480275
I34813
sI171524948
I28231
sI1045480277
I34813
sI1045480278
I34813
sI914998103
I27865
sI1045480280
I34813
sI1045480281
I34813
sI1045480282
I34813
sI1045480283
I34813
sI1045480284
I34813
sI1045480285
I34813
sI1045480286
I34813
sI1045480287
I34813
sI1045480288
I34813
sI1045480289
I34813
sI1045480290
I34813
sI1045480291
I34813
sI1045480292
I34813
sI1045480293
I34813
sI1045480294
I34813
sI1045480295
I34813
sI1045480296
I34813
sI1045480297
I34813
sI1045480298
I34813
sI1045480299
I34813
sI1045480300
I34813
sI1045480301
I34813
sI1045480302
I34813
sI1045480303
I34813
sI1045480304
I34813
sI1045480305
I34813
sI1045480306
I34813
sI1045480307
I34813
sI1045480308
I34813
sI335463286
I34811
sI171524994
I34810
sI171525000
I34810
sI171525001
I34810
sI171525008
I34810
sI171516056
I34811
sI171525010
I34810
sI171525011
I34810
sI171525018
I34810
sI219464603
I28235
sI914998174
I34810
sI171525024
I34810
sI171525025
I34816
sI171525034
I34810
sI171525035
I34810
sI171525037
I34810
sI171525038
I34810
sI335463345
I34816
sI335463346
I34811
sI171525043
I34810
sI171525044
I34810
sI171525045
I34810
sI171525046
I34810
sI171521524
I34780
sI171525052
I28232
sI171525053
I28232
sI914998206
I34810
sI914998207
I34810
sI171525056
I28232
sI171525058
I28232
sI917380090
I27865
sI24884727
I28228
sI171525069
I34816
sI171521528
I34780
sI171525080
I28232
sI171525083
I28232
sI171525084
I28232
sI171525086
I28232
sI171525089
I28232
sI171525092
I28232
sI219464684
I28231
sI219464685
I28231
sI171525102
I28232
sI335463408
I28234
sI171525105
I28232
sI171525106
I28232
sI171525107
I28232
sI335463412
I28234
sI335463413
I28234
sI171525110
I28232
sI914998263
I34810
sI171525116
I28232
sI171525117
I28232
sI275989505
I27865
sI171525122
I28232
sI171525124
I28232
sI171525125
I28232
sI914998278
I34810
sI171525127
I28232
sI171525138
I28232
sI171525139
I28232
sI171525145
I28232
sI171525146
I28232
sI171525147
I28232
sI171525148
I28232
sI335463453
I28234
sI171525150
I28232
sI335463455
I28234
sI171525152
I28232
sI171525153
I28232
sI171525156
I28232
sI171525159
I28232
sI335463469
I28234
sI914998322
I34810
sI914998328
I34810
sI335463490
I28234
sI1044104259
I34780
sI335463492
I28234
sI335463494
I28234
sI335463496
I28234
sI335463498
I28234
sI335463501
I28234
sI916276302
I24664
sI335463503
I28234
sI335463507
I28234
sI335463510
I28234
sI171525207
I28232
sI335463513
I28234
sI171525211
I28232
sI171525212
I28231
sI171525216
I28231
sI275498081
I34780
sI916276322
I28234
sI916276323
I28234
sI171525220
I28232
sI171525224
I28232
sI171525225
I28232
sI335463536
I34814
sI275498098
I34780
sI916276340
I28232
sI916276341
I28232
sI916276342
I28232
sI335463543
I34814
sI916276344
I28232
sI916276345
I28232
sI916276346
I28232
sI916276347
I28232
sI916276348
I28232
sI916276349
I28232
sI916276350
I34811
sI916276351
I34811
sI916276352
I34811
sI916276353
I34811
sI916276354
I34811
sI916276355
I34811
sI916276356
I34811
sI916276357
I34811
sI171525259
I28232
sI171525263
I28232
sI335463568
I28234
sI171525271
I28232
sI335463576
I28230
sI948257946
I34813
sI171525276
I28232
sI1045486002
I34813
sI335463598
I28230
sI1044104367
I28235
sI335463602
I28230
sI171525299
I28232
sI171525305
I28232
sI171525307
I28232
sI335463612
I27865
sI171525311
I28232
sI171525312
I28232
sI1044694211
I28235
sI914900164
I28235
sI914900165
I28235
sI914900166
I28235
sI914900167
I28235
sI171525320
I28232
sI171525328
I28232
sI915031252
I28234
sI171525344
I28232
sI916276453
I28228
sI335463658
I35619
sI335463659
I35619
sI171525356
I28232
sI335463662
I35619
sI335463664
I35619
sI335463667
I35619
sI171510656
I34811
sI243540185
I28228
sI171525403
I34810
sI196986141
I28232
sI915031332
I28234
sI915031333
I28234
sI915031335
I28234
sI171517508
I34810
sI335463075
I27865
sI335454431
I34780
sI917980476
I34666
sI917980477
I34666
sI196986175
I28232
sI171525461
I34810
sI915031387
I28234
sI872170844
I28236
sI171525470
I34810
sI171525486
I34810
sI335463791
I28230
sI335463798
I28230
sI171525498
I34810
sI335463805
I28230
sI335463806
I28230
sI171525503
I34810
sI335463808
I28230
sI335463810
I28230
sI171521604
I28235
sI171521605
I28235
sI24866357
I34810
sI916276654
I28228
sI916276655
I28228
sI916276656
I28228
sI916276657
I28228
sI915031487
I28232
sI915031494
I28232
sI171525581
I28231
sI1103128734
I34780
sI171530607
I24664
sI335463900
I28230
sI1045906947
I34813
sI275990023
I27865
sI275990025
I27865
sI916276748
I34816
sI335463949
I28230
sI915031571
I28228
sI1060292116
I34780
sI196986390
I28232
sI915031585
I28228
sI196986409
I28232
sI915031594
I34811
sI335463992
I28230
sI335463996
I28230
sI335464004
I28230
sI1120978503
I34780
sI171525715
I24664
sI916276829
I24664
sI171525726
I24664
sI171525736
I28232
sI335464045
I28230
sI335464046
I28230
sI335464049
I28230
sI335464050
I28230
sI171525748
I28232
sI275498624
I34780
sI171525768
I28232
sI275498634
I34780
sI275983404
I28232
sI1113015960
I28235
sI1113015961
I28235
sI1113015962
I28235
sI914998953
I24664
sI914998954
I24664
sI171525814
I28232
sI171525829
I28232
sI171525833
I28232
sI914998986
I34810
sI914998987
I34810
sI171525836
I28232
sI171525837
I28232
sI171525838
I28232
sI171525839
I28232
sI914998994
I34810
sI171525844
I28232
sI914998997
I34810
sI171525846
I28232
sI1044989658
I28235
sI1044989659
I34780
sI1044989660
I28235
sI916276957
I34722
sI171525857
I28232
sI171525861
I28232
sI171525862
I28232
sI914999016
I34810
sI171525866
I28232
sI335464176
I27865
sI916276980
I28232
sI916276981
I28232
sI916276982
I28232
sI916276983
I28232
sI916276984
I28232
sI171525884
I34666
sI196301452
I35619
sI171525903
I28232
sI171525910
I28232
sI1103128745
I28234
sI171525917
I28232
sI171525918
I28232
sI171525928
I28232
sI842024745
I28232
sI171525930
I28232
sI916277037
I28232
sI916277038
I28232
sI275990321
I34722
sI171525944
I28232
sI171521678
I28235
sI171521679
I28235
sI916277085
I34811
sI338872161
I28232
sI338872162
I28232
sI1045448551
I28234
sI1045448552
I28234
sI1045448553
I28234
sI1045448554
I28234
sI1045448555
I28234
sI1045448556
I28234
sI1045448557
I28234
sI171525998
I28232
sI1045448559
I28234
sI1045448560
I28234
sI1045448561
I28234
sI1045448562
I28234
sI1045448565
I34813
sI1045448566
I34813
sI1045448567
I34813
sI335464312
I28234
sI1045448569
I28234
sI171526025
I34666
sI915031959
I24664
sI915031960
I24664
sI171526048
I34666
sI171526053
I34666
sI171526054
I34666
sI335464360
I28230
sI335464361
I28230
sI915031981
I34811
sI915031982
I34811
sI916277171
I28228
sI916277172
I28228
sI916277173
I28228
sI916277174
I28228
sI171526082
I28232
sI915032005
I34811
sI916277190
I28228
sI171521697
I28235
sI335464395
I34811
sI275990483
I28234
sI275990485
I34814
sI171526107
I28232
sI275990493
I34814
sI171521701
I28235
sI171526114
I28232
sI171526126
I28232
sI171526130
I28232
sI171526131
I28232
sI171526132
I28232
sI171526136
I28232
sI171526138
I28232
sI338872322
I24664
sI338872323
I24664
sI171526155
I28232
sI275990548
I34810
sI275990556
I28234
sI338872349
I27865
sI216614943
I34816
sI171526182
I24664
sI171526212
I24664
sI216614989
I28230
sI216614990
I28230
sI216614993
I28230
sI171526246
I28232
sI171526264
I28232
sI196987002
I34810
sI950159491
I35619
sI171526280
I28232
sI275499150
I34780
sI335464594
I28234
sI171526295
I28232
sI196987034
I28232
sI335464604
I28234
sI171526301
I28232
sI275499166
I34780
sI275499169
I34780
sI196987051
I28232
sI196987053
I34810
sI196987054
I34810
sI196987055
I34810
sI275499188
I34780
sI171525176
I28232
sI275499194
I34780
sI196987067
I34810
sI1060292796
I28234
sI171526340
I28232
sI196987081
I34810
sI171526348
I28232
sI275499218
I34780
sI275499227
I34780
sI171526378
I28232
sI275499243
I34780
sI171518175
I34816
sI915032307
I34811
sI915032308
I34811
sI275499255
I34780
sI171526392
I28232
sI335454591
I34815
sI850872572
I28232
sI850872573
I28232
sI850872574
I28232
sI850872575
I28232
sI850872576
I28232
sI850872577
I28232
sI850872578
I28232
sI275499267
I34780
sI171526408
I28232
sI171526414
I28232
sI915032336
I34811
sI915032337
I34811
sI171526418
I34814
sI171526422
I34722
sI171526453
I34722
sI243541948
I28230
sI171526481
I34722
sI215649337
I28236
sI171526504
I34722
sI171526516
I34722
sI1060277310
I34780
sI171526532
I28236
sI171526553
I28236
sI171526554
I28236
sI171526560
I28236
sI171526562
I28236
sI171526566
I28236
sI915024489
I24664
sI171526568
I28236
sI872171945
I34813
sI872171946
I34813
sI171526572
I28236
sI915032498
I28232
sI915032499
I28232
sI216615349
I28230
sI216615350
I28230
sI216615355
I28230
sI275499467
I34780
sI216615372
I34814
sI948259918
I34722
sI221977949
I34816
sI275499484
I34780
sI171526632
I28236
sI915032576
I28228
sI915032577
I28228
sI171526674
I28232
sI275499539
I34780
sI950159905
I35619
sI915032613
I28232
sI915032614
I28232
sI915032615
I34811
sI915032616
I34811
sI171530644
I24664
sI338872875
I28232
sI338872876
I28232
sI275499566
I34780
sI915032623
I28232
sI275499568
I34780
sI216610568
I28236
sI275499576
I34780
sI243540404
I28236
sI216610570
I28236
sI171521803
I34722
sI338858715
I34816
sI275499598
I34780
sI171526742
I28236
sI171526744
I28236
sI275499609
I34780
sI275499610
I34780
sI196987499
I28231
sI196987500
I28231
sI196987528
I34810
sI196299402
I28234
sI196299413
I28234
sI917380247
I27865
sI171526821
I28236
sI335465126
I34814
sI335465130
I34814
sI171521821
I34722
sI335465136
I34814
sI335465139
I34814
sI335465141
I34814
sI171526841
I28236
sI171526844
I34813
sI171526847
I28236
sI335465155
I34814
sI335465159
I34814
sI171526861
I28236
sI335465181
I28234
sI171526879
I28236
sI171526887
I28236
sI335465193
I28230
sI335465205
I34811
sI335465213
I28234
sI171521839
I34813
sI171526944
I28236
sI957565729
I34815
sI914993950
I34810
sI171526958
I28236
sI171526962
I28236
sI171526969
I28236
sI171526977
I28236
sI171526984
I28236
sI949537612
I34780
sI171526999
I28236
sI171527003
I28236
sI171527015
I28236
sI171527037
I28235
sI171527043
I28235
sI171527044
I28235
sI171527060
I28235
sI171527063
I28235
sI171527073
I28236
sI171527092
I28236
sI171527097
I28235
sI171527111
I28228
sI171527130
I28236
sI275986255
I27865
sI171527148
I28236
sI171527150
I28236
sI171527152
I28236
sI171527157
I28236
sI171527163
I28236
sI171527164
I28236
sI171517566
I34810
sI171527168
I28236
sI171527172
I28236
sI171527201
I28236
sI275500067
I28228
sI979565961
I34811
sI171527238
I28236
sI171527243
I28236
sI216616013
I34810
sI171527246
I28236
sI948259919
I34813
sI948259920
I34814
sI171527271
I28236
sI171527275
I28236
sI171527282
I28236
sI957598842
I28228
sI957598843
I28228
sI957598844
I28228
sI957598846
I28228
sI171527312
I28236
sI914902163
I34780
sI335465636
I34816
sI848809130
I34810
sI335465680
I34810
sI171521912
I28235
sI335465690
I34816
sI171527387
I28232
sI916273018
I28230
sI917381670
I28228
sI171527405
I24664
sI171527416
I24664
sI171527419
I28232
sI275991835
I34814
sI275991836
I34816
sI275991837
I34816
sI1060293921
I34780
sI1060293922
I34780
sI1060293923
I34780
sI275991844
I34814
sI1060293925
I34780
sI1060293926
I34780
sI1060293927
I34780
sI1060293928
I34780
sI216616251
I27865
sI171527485
I28232
sI275991897
I34780
sI275991899
I34780
sI171527523
I28236
sI216616300
I27865
sI216616301
I27865
sI216616302
I27865
sI275991929
I34780
sI915000721
I34810
sI915000722
I34810
sI949538196
I28228
sI216616349
I27865
sI216616350
I27865
sI216616351
I27865
sI171517681
I34816
sI1045482931
I34813
sI1045482932
I34813
sI1045482933
I34813
sI1045482934
I34813
sI1045482935
I34813
sI1045482936
I34813
sI1045482937
I34813
sI1045482938
I34813
sI1045482940
I34813
sI1045482941
I34813
sI1045482942
I34813
sI1045482943
I34813
sI1045482944
I34813
sI1045482945
I34813
sI1045482946
I34813
sI1045482947
I34813
sI1045482948
I34813
sI1045482949
I34813
sI1045482950
I34813
sI1045482951
I34813
sI1045482952
I34813
sI275500489
I28236
sI1045482954
I34813
sI1045482955
I34813
sI1045482956
I34813
sI916273058
I28232
sI1045482958
I34813
sI1045482959
I34813
sI1045482960
I34813
sI1045482961
I34813
sI1045482962
I34813
sI1045482963
I34813
sI1045482964
I34813
sI275500501
I28236
sI1045482966
I34813
sI1045482967
I34813
sI1045482968
I34813
sI338841049
I34780
sI1045482970
I34813
sI1045482971
I34813
sI1045482972
I34813
sI1045482973
I34813
sI1045482974
I34813
sI915033567
I28234
sI915033568
I28234
sI243540560
I28232
sI915033570
I28234
sI1045482979
I34813
sI1045482980
I34813
sI1045482981
I34813
sI216616422
I27865
sI216616423
I27865
sI1045482984
I34813
sI1045482985
I34813
sI216616426
I34810
sI216616427
I27865
sI216616428
I27865
sI1045482989
I34813
sI1045482990
I34813
sI1045482991
I34813
sI1045482992
I34813
sI1045482994
I34813
sI1045482996
I34813
sI1045482998
I34813
sI1045482999
I34813
sI275500536
I28235
sI1045483001
I34813
sI1045483002
I34813
sI1045483003
I34813
sI1045483004
I34813
sI1045483005
I34813
sI171527678
I24664
sI1045483007
I34813
sI1045483008
I34813
sI1045483009
I34813
sI1045483010
I34813
sI1045483011
I34813
sI1045483012
I34813
sI1045483013
I34813
sI1045483014
I34813
sI1045483015
I34813
sI1045483016
I34813
sI1045483017
I34813
sI1045483018
I34780
sI1045483019
I34780
sI1045483020
I34780
sI1045483021
I34780
sI1045483022
I34780
sI1045483023
I34780
sI1045483024
I34780
sI1045483025
I34780
sI1045483026
I34780
sI1045483027
I34780
sI1045483028
I34780
sI1045483029
I34780
sI1045483030
I34780
sI1045483031
I34780
sI1045483032
I34780
sI1045483033
I34780
sI1045483034
I34780
sI877710875
I34813
sI1045483036
I34780
sI1045483037
I34780
sI1045483038
I34780
sI1045483039
I34780
sI1045483040
I34780
sI1045483041
I34780
sI1045483042
I34780
sI1045483043
I34780
sI1045483044
I34780
sI1045483045
I34780
sI1045483046
I34780
sI1045483047
I34780
sI1045483048
I34780
sI1045483049
I34780
sI1045483050
I34780
sI1045483051
I34780
sI1045483052
I34780
sI1045483053
I34780
sI1045483054
I34780
sI1045483055
I34780
sI1045483056
I34780
sI1045483057
I34780
sI1045483058
I34780
sI1045483059
I34780
sI1045483060
I34780
sI1045483061
I34780
sI1045483062
I34780
sI1045483063
I34780
sI1045483064
I34780
sI1045483065
I34780
sI1045483066
I34780
sI1045483067
I34780
sI1045483068
I34780
sI1045483069
I34780
sI1045483070
I34780
sI1045483071
I34780
sI1045483072
I34780
sI1045483073
I34780
sI1045483074
I34780
sI1045483075
I34780
sI1045483076
I34780
sI1045483077
I34813
sI1045483078
I34813
sI1045483079
I34813
sI915033672
I28234
sI1045483081
I34813
sI1045483082
I34813
sI1045483083
I34813
sI1045483084
I34813
sI1045483085
I34813
sI171527758
I24664
sI1045483087
I34813
sI1045483088
I34813
sI915033681
I28234
sI335454819
I28230
sI999960276
I28234
sI171526315
I28232
sI1045483094
I34813
sI1045483095
I34813
sI1045483096
I34813
sI171527769
I24664
sI1045483098
I34780
sI1045483099
I34780
sI1045483100
I34780
sI1045483101
I34780
sI1045483102
I34780
sI1045483104
I34813
sI1045483106
I34813
sI1045483108
I34813
sI1045483110
I34813
sI1045483112
I34813
sI1045483114
I34813
sI915033707
I28234
sI1045483116
I34813
sI171527789
I24664
sI1045483118
I34813
sI1045483119
I34813
sI1045483120
I34813
sI243540584
I24664
sI1045483122
I34813
sI1045483123
I34813
sI1045483124
I34813
sI1045483125
I34813
sI1045483126
I34813
sI1045483127
I34813
sI1045483128
I34813
sI1045483129
I34813
sI1045483130
I34813
sI1045483131
I34813
sI1045483132
I34813
sI1045483133
I34813
sI1045483134
I34813
sI1045483135
I34813
sI1045483136
I34813
sI1045483137
I34813
sI1045483138
I34813
sI1045483139
I34813
sI1045483140
I34813
sI1045483141
I34813
sI1045483142
I34813
sI1045483144
I34813
sI1045483145
I34780
sI1045483146
I34780
sI1045483147
I34780
sI1045483148
I34780
sI1045483149
I34780
sI1045483150
I34780
sI1045483151
I34780
sI1045483152
I34780
sI1045483153
I34813
sI1045483154
I34780
sI1045483155
I34780
sI1045483156
I34813
sI1045483157
I34813
sI1045483158
I34813
sI1045483159
I34813
sI171516531
I27865
sI335454836
I28230
sI171527872
I24664
sI1060294343
I34780
sI1060294344
I34780
sI1060294345
I34780
sI1060294346
I34780
sI335454839
I28230
sI1060294348
I34780
sI1060294349
I34780
sI1060294350
I34780
sI1060294351
I34780
sI1060294352
I34780
sI1060294353
I34780
sI1060294354
I34780
sI1060294355
I34780
sI1060294356
I34780
sI1060294357
I34780
sI1060294358
I34780
sI1060294359
I34780
sI1060294360
I34780
sI1060293924
I34780
sI1060294362
I34780
sI1060294363
I34780
sI1060294364
I34780
sI335454842
I28230
sI1060294366
I34780
sI1060294367
I34780
sI1060294368
I34780
sI171522000
I28236
sI1060294370
I34780
sI1060294371
I34780
sI171527908
I24664
sI1060294373
I34780
sI915024534
I24664
sI171527921
I24664
sI171527931
I24664
sI171527940
I24664
sI216616772
I27865
sI216616780
I27865
sI216616781
I27865
sI216616792
I28232
sI915033954
I34814
sI216616822
I24664
sI216616823
I24664
sI216616824
I24664
sI216616825
I24664
sI216616826
I24664
sI171528078
I24664
sI171528080
I24664
sI335454872
I28230
sI275500967
I34780
sI275500968
I34780
sI275500981
I34780
sI171528118
I24664
sI171528120
I24664
sI275500985
I34780
sI914902970
I34816
sI915034048
I34811
sI918540232
I34810
sI915034063
I34811
sI915034064
I34811
sI1060360145
I34780
sI915034078
I34813
sI916271704
I34810
sI275501034
I34780
sI275501035
I34780
sI275501038
I34780
sI275501040
I34780
sI915034098
I28236
sI275501043
I34780
sI275501048
I34780
sI999960290
I34814
sI275501059
I34780
sI171528196
I24664
sI216616966
I24664
sI275501063
I34780
sI275501070
I34780
sI275501077
I34780
sI275501078
I34780
sI275501080
I34780
sI275501081
I34780
sI275501082
I34780
sI704729116
I28234
sI704729117
I28234
sI704729118
I28234
sI171522053
I34813
sI914995207
I34810
sI216617007
I24664
sI914995208
I34810
sI999960292
I34814
sI171522057
I34813
sI171528251
I24664
sI171528252
I24664
sI1062385674
I34815
sI216617022
I28232
sI216617023
I24664
sI171528259
I24664
sI171528265
I24664
sI171522061
I34813
sI171528279
I24664
sI171522063
I34813
sI171528295
I24664
sI171528296
I24664
sI171528302
I24664
sI915001479
I34810
sI915001480
I34810
sI915001482
I27865
sI915001483
I27865
sI915001484
I27865
sI915001485
I27865
sI915001486
I27865
sI915001487
I27865
sI1060360339
I34780
sI1060360340
I34780
sI1060360341
I34780
sI1060360342
I34780
sI171528344
I24664
sI171528353
I24664
sI275501233
I34780
sI275501234
I34780
sI999960297
I34814
sI914995234
I24664
sI171528406
I24664
sI275986468
I34810
sI19452136
I34816
sI171528429
I24664
sI19452146
I28232
sI171528445
I24664
sI919490829
I34810
sI919490830
I34810
sI275501344
I28235
sI171528482
I24664
sI171528484
I24664
sI338874661
I28231
sI338874662
I28231
sI914903336
I34780
sI914903337
I34780
sI338874669
I28231
sI171528504
I24664
sI275501370
I28235
sI338874685
I34816
sI338874689
I34816
sI338874692
I34815
sI338874693
I34815
sI171516520
I28230
sI275501394
I34780
sI171528538
I24664
sI1060295005
I34780
sI1060295006
I34780
sI1060295007
I34780
sI1060295008
I34780
sI1060295009
I34780
sI1060295010
I34780
sI1060295011
I34780
sI1060295012
I34780
sI1060295013
I34780
sI1060295014
I34780
sI1060295015
I34780
sI1060295016
I34780
sI243542018
I28230
sI171528595
I24664
sI243540719
I24664
sI171528604
I24664
sI171528605
I24664
sI171528616
I24664
sI1060295093
I34780
sI915001790
I34810
sI915001791
I34810
sI243540726
I24664
sI999960306
I34814
sI171528671
I24664
sI171528679
I24664
sI171528680
I24664
sI171528682
I24664
sI914994420
I24664
sI915001851
I24664
sI915001852
I24664
sI915001860
I27865
sI915001861
I27865
sI915001864
I24664
sI275173902
I34816
sI915001876
I24664
sI915001877
I24664
sI915001878
I24664
sI915001881
I27865
sI915001890
I24664
sI1045451300
I34813
sI171528747
I24664
sI915001902
I24664
sI171528752
I24664
sI915001907
I24664
sI275173951
I28228
sI275173954
I28228
sI275173956
I34816
sI914903632
I28234
sI914903633
I28234
sI171528795
I24664
sI848777824
I34814
sI275173985
I34816
sI848777826
I34814
sI851479995
I28234
sI196301418
I35619
sI219468395
I34780
sI196301422
I35619
sI196301423
I35619
sI196301426
I35619
sI196301428
I35619
sI196301429
I35619
sI171528823
I24664
sI196301433
I35619
sI196301434
I35619
sI915001981
I24664
sI196301441
I35619
sI196301443
I35619
sI918508165
I24664
sI918508166
I27865
sI918508167
I24664
sI918508168
I24664
sI918508169
I24664
sI918508170
I28228
sI918508171
I24664
sI918508172
I24664
sI196301453
I35619
sI918508174
I34810
sI196301455
I35619
sI918508176
I28228
sI196301457
I35619
sI196301458
I35619
sI196301459
I35619
sI196301464
I35619
sI999962735
I34814
sI171528866
I24664
sI917754534
I27865
sI171528871
I24664
sI171528872
I24664
sI999962738
I34814
sI171528878
I24664
sI915002034
I24664
sI171528883
I24664
sI1045482953
I34813
sI171528902
I24664
sI171528908
I24664
sI1045482957
I34813
sI171528915
I24664
sI171528925
I24664
sI216600937
I27865
sI171517625
I34810
sI171528948
I24664
sI171528949
I24664
sI1045482965
I34813
sI335455019
I28230
sI335455020
I28230
sI171528978
I24664
sI243540782
I24664
sI171528982
I24664
sI1045482969
I34813
sI171528995
I24664
sI171528996
I24664
sI916273287
I28232
sI917754671
I27865
sI275984603
I35619
sI275505972
I28235
sI1045482975
I34813
sI1045482976
I34813
sI915033569
I28234
sI1045482978
I34813
sI196301652
I28234
sI806245206
I34810
sI915028111
I34811
sI1045482982
I34813
sI1045482983
I34813
sI171529085
I24664
sI999960320
I34814
sI1045482987
I34813
sI171529096
I24664
sI171529097
I24664
sI916277191
I28228
sI171529121
I24664
sI171529128
I24664
sI335455047
I28230
sI171522206
I28235
sI171522208
I28235
sI171529164
I24664
sI171529165
I24664
sI171511288
I27865
sI919845027
I27865
sI915028132
I34811
sI915028133
I34811
sI915028134
I34811
sI243540817
I34810
sI171529196
I24664
sI171529202
I28232
sI215652755
I34780
sI275174426
I34816
sI275174427
I34816
sI275174429
I34816
sI275174433
I34816
sI171529258
I24664
sI275174445
I34816
sI171529263
I24664
sI171529265
I24664
sI171529266
I24664
sI171529271
I24664
sI171529321
I24664
sI171529322
I24664
sI275451411
I28228
sI171529338
I24664
sI171529342
I24664
sI171529357
I24664
sI171529366
I24664
sI171529367
I24664
sI171529373
I24664
sI275502241
I34780
sI1045483035
I34780
sI275502244
I28235
sI275502247
I34780
sI275502249
I28235
sI171529393
I24664
sI171529395
I24664
sI1035031742
I34780
sI1035031743
I34780
sI1035031744
I34780
sI1035031745
I34780
sI1035031746
I34780
sI1035031747
I34780
sI1035031748
I34780
sI1035031749
I34780
sI1035031750
I34780
sI1035031751
I34780
sI917755080
I34816
sI917755081
I34816
sI1035031754
I34780
sI1035031755
I34780
sI1035031756
I34780
sI275240144
I34816
sI171529440
I28232
sI171529441
I28232
sI171535100
I34816
sI171529448
I28232
sI805721321
I27865
sI805721322
I27865
sI805721323
I27865
sI805721324
I27865
sI805721325
I28232
sI805721326
I28232
sI805721327
I28232
sI915035383
I34722
sI171529466
I28232
sI999960333
I34814
sI275502346
I28235
sI171529483
I28232
sI171529484
I28232
sI171529485
I28232
sI915035407
I24664
sI915035408
I24664
sI171517644
I28230
sI1035031856
I34780
sI1035031857
I34780
sI1035031858
I34780
sI1035031859
I34780
sI1035031860
I34780
sI1035031861
I34780
sI1035031862
I34780
sI1035031863
I34780
sI1035031864
I34780
sI1035031865
I34780
sI171529530
I28232
sI1035031867
I34780
sI171529532
I28232
sI275506058
I28235
sI171529537
I28232
sI335455115
I34813
sI335455116
I34813
sI171529547
I28232
sI171529569
I28232
sI919512407
I27865
sI243540881
I27865
sI243540883
I27865
sI171529589
I28232
sI275502472
I28235
sI1035031950
I34780
sI1035031951
I34780
sI171529617
I28232
sI275502482
I28235
sI275502492
I28235
sI918469866
I27865
sI851465632
I34810
sI851465633
I34810
sI915035554
I34814
sI915035555
I34814
sI275502507
I28235
sI275502508
I28235
sI1045483080
I34813
sI171529663
I28232
sI171529669
I28232
sI171529674
I28232
sI171529683
I28232
sI1045483086
I34813
sI171529695
I28232
sI1061991085
I34816
sI335456260
I34813
sI1045483089
I34813
sI1045483091
I34813
sI915044606
I28234
sI914995455
I28232
sI1045483093
I34813
sI915039149
I34811
sI171529748
I28232
sI243540910
I27865
sI1045483097
I34813
sI243540916
I27865
sI1045482977
I34813
sI171529816
I28232
sI171529817
I28232
sI171529825
I28232
sI806180454
I34816
sI806180455
I34816
sI806180456
I28235
sI806180457
I28235
sI806180458
I28236
sI915035777
I34814
sI915035778
I34814
sI1045483115
I34813
sI1084216965
I34815
sI1045483117
I34813
sI171529876
I28232
sI335455173
I34814
sI24880070
I34810
sI1045483121
I34813
sI171529898
I24664
sI171529905
I24664
sI979752626
I28230
sI335455178
I34814
sI335455179
I34814
sI171529926
I24664
sI171529932
I24664
sI171529939
I24664
sI171529940
I24664
sI171529941
I24664
sI171529942
I24664
sI171529943
I24664
sI171529944
I24664
sI915026784
I28228
sI171529957
I24664
sI171529958
I24664
sI171529959
I24664
sI171529962
I24664
sI171529967
I24664
sI171529970
I24664
sI171529972
I24664
sI171529974
I24664
sI171529988
I24664
sI171529993
I24664
sI171529995
I24664
sI171516890
I28230
sI171516891
I28230
sI864802611
I28232
sI864802612
I28232
sI915026787
I28228
sI171530065
I24664
sI917755733
I34816
sI915035990
I34722
sI915035991
I34722
sI171530084
I24664
sI171530087
I24664
sI171530101
I24664
sI979687305
I24664
sI979687306
I24664
sI979687307
I24664
sI979687308
I24664
sI979687309
I24664
sI979687310
I28232
sI979687311
I28232
sI979687312
I24664
sI979687313
I24664
sI171530134
I24664
sI915003287
I27865
sI915003288
I27865
sI915003289
I27865
sI915003290
I27865
sI171530148
I24664
sI915003301
I27865
sI171530151
I24664
sI171530157
I24664
sI171530158
I24664
sI915003326
I27865
sI171530181
I24664
sI914984609
I34810
sI24860620
I27865
sI171530200
I24664
sI275503071
I28235
sI275503072
I28235
sI24860641
I27865
sI917755876
I34816
sI915036142
I34814
sI915036143
I34814
sI24860659
I27865
sI24860661
I27865
sI275503099
I28235
sI171530239
I24664
sI171530243
I24664
sI917755909
I28231
sI275503110
I28235
sI915036167
I34814
sI915036168
I34814
sI171530282
I28232
sI171530290
I28232
sI915036211
I34814
sI915036212
I34814
sI287955001
I34816
sI243541002
I34816
sI275986784
I34810
sI287955016
I34815
sI287955017
I34815
sI287955019
I34815
sI287955022
I34815
sI917709837
I28232
sI917709838
I28232
sI243541007
I34816
sI171530334
I24664
sI287955039
I34816
sI287955041
I34816
sI287955047
I34816
sI819091563
I24664
sI287955052
I34816
sI287955054
I34816
sI171530355
I24664
sI171530359
I24664
sI917756027
I27865
sI917756031
I28231
sI917756032
I28231
sI917756033
I28231
sI171530371
I24664
sI171517673
I34816
sI24860821
I34816
sI171530390
I24664
sI171530391
I24664
sI915003544
I27865
sI915003545
I27865
sI171530394
I24664
sI171530398
I24664
sI171530399
I24664
sI915003557
I34810
sI915003558
I34810
sI915003567
I34810
sI915003568
I34810
sI1060294347
I34780
sI275506209
I34813
sI24863778
I27865
sI171530447
I28232
sI915003601
I27865
sI915003602
I27865
sI24863779
I27865
sI950294742
I24664
sI915003607
I34810
sI275110107
I28232
sI915036385
I34814
sI915036386
I34814
sI915003620
I27865
sI915003621
I27865
sI915036403
I34814
sI915039276
I28232
sI915039277
I28232
sI915003664
I34810
sI878521955
I27865
sI1060294361
I34780
sI915003679
I34810
sI171530537
I24664
sI842024746
I28232
sI1060294365
I34780
sI915003698
I34810
sI915039283
I28232
sI171530549
I24664
sI806148406
I34780
sI806148407
I34780
sI806148408
I34722
sI806148409
I34722
sI806148410
I34722
sI806148411
I28232
sI806148412
I28232
sI806148413
I34810
sI806148414
I34810
sI1060294369
I34780
sI878521957
I27865
sI171530585
I24664
sI171530589
I24664
sI1045485921
I34813
sI1045485923
I34813
sI1045485924
I34813
sI1045485925
I34813
sI915036518
I34814
sI1045485927
I34813
sI1045485928
I34813
sI1045485929
I34813
sI1045485930
I34813
sI1045485931
I34813
sI1045485932
I34813
sI1045485933
I34813
sI1045485934
I34813
sI1045485935
I34813
sI1045485936
I34813
sI1045485937
I34813
sI1045485938
I34813
sI1045485939
I34813
sI1045485940
I34813
sI1045485941
I34813
sI1045485942
I34813
sI1045485943
I34813
sI1045485944
I34813
sI1045485945
I28235
sI1045485946
I28235
sI1045485947
I28235
sI1045485948
I28235
sI1045485949
I28235
sI1045485950
I34780
sI1045485951
I34780
sI1045485952
I34780
sI1045485953
I34780
sI1045485954
I34780
sI1045485955
I28235
sI1045485956
I28235
sI1045485957
I28235
sI1045485958
I34813
sI1045485959
I28235
sI1045485960
I28235
sI1045485961
I28235
sI1045485962
I28235
sI1045485963
I28235
sI1045485964
I28235
sI1045485965
I28235
sI1045485966
I34813
sI1045485967
I28235
sI1045485968
I28235
sI1045485969
I28235
sI1045485970
I34813
sI1045485971
I28235
sI1045485972
I34813
sI1045485973
I34813
sI1045485974
I34813
sI1045485975
I28235
sI1045485976
I28235
sI1045485977
I28235
sI1045485978
I28235
sI1045485979
I28235
sI1045485980
I28235
sI1045485981
I28235
sI1045485982
I28235
sI1045485983
I28235
sI1045485984
I28235
sI1045485985
I28235
sI1045485986
I28235
sI1045485987
I28235
sI1045485988
I28235
sI1045485989
I28235
sI1045485990
I28235
sI1045485991
I28235
sI1045485992
I28235
sI1045485993
I28235
sI1045485994
I28235
sI1045485995
I28235
sI1045485996
I34813
sI1045485997
I28235
sI1045485998
I34813
sI1045485999
I28235
sI1045486000
I28235
sI1045486001
I34813
sI915036594
I34814
sI1045486003
I34813
sI1045486004
I34813
sI1045486005
I28235
sI1045486006
I28235
sI1045486007
I28235
sI1045486008
I28235
sI1045486009
I28235
sI1045486010
I28235
sI1045486011
I28235
sI1045486012
I28235
sI1045486013
I28235
sI915036606
I24664
sI915036607
I24664
sI1045486016
I34813
sI1045486017
I34813
sI1045486018
I34813
sI1045486019
I34813
sI1045486020
I34813
sI1045486021
I34813
sI1045486022
I34813
sI1045486023
I34813
sI1045486024
I34813
sI1045486025
I34813
sI1045486026
I34813
sI1045486027
I34813
sI1045486028
I34813
sI1045486029
I34813
sI1045486030
I34813
sI1045486031
I34813
sI1045486032
I34813
sI1045486033
I34813
sI1045486034
I34813
sI1045486035
I34813
sI1045486036
I34813
sI1045486038
I34813
sI1045486039
I34813
sI243541071
I34811
sI171530753
I34816
sI171530761
I34816
sI915036693
I28234
sI915036694
I28234
sI915021356
I34815
sI915036715
I24664
sI915036716
I24664
sI915036728
I28228
sI1060362809
I34780
sI1060362810
I34780
sI1060362811
I34780
sI1060362812
I34780
sI1060362813
I34780
sI1060362814
I34780
sI1060362815
I34780
sI1060362816
I34780
sI1060362817
I34780
sI1060362818
I34780
sI1060362819
I34780
sI1060362820
I34780
sI1060362822
I34780
sI1060362823
I34780
sI1060362824
I34780
sI1060362825
I34780
sI1060362826
I34780
sI1060362827
I34780
sI243541094
I28228
sI335455335
I34816
sI915004017
I34810
sI335455338
I34816
sI171530886
I34816
sI915004040
I34810
sI915004041
I34810
sI171514866
I28230
sI24880241
I28232
sI221993646
I28232
sI979753656
I27865
sI979753657
I27865
sI1010306847
I34816
sI243541006
I34816
sI219470541
I28232
sI221993694
I34814
sI275503480
I34813
sI221993700
I34814
sI221993701
I34814
sI221993702
I34814
sI806148405
I34780
sI171517057
I28230
sI916249355
I27865
sI916249356
I27865
sI916249357
I27865
sI171517059
I28230
sI221993760
I34814
sI221993765
I34814
sI221993767
I34814
sI1127865129
I27865
sI221993771
I34814
sI221993773
I34815
sI171517064
I28230
sI1127865139
I27865
sI243541132
I34811
sI335455375
I28235
sI915004252
I34810
sI171531103
I24664
sI915037029
I28228
sI915037030
I28228
sI915004264
I34810
sI916249450
I24664
sI916249451
I24664
sI916249452
I24664
sI916249453
I24664
sI916249454
I24664
sI916249455
I24664
sI171531128
I24664
sI916249466
I24664
sI916249467
I24664
sI916249468
I24664
sI916249469
I24664
sI915037058
I28228
sI915037059
I28228
sI915037060
I28228
sI1045482986
I34813
sI171531164
I24664
sI243541146
I28234
sI171531166
I24664
sI171531204
I24664
sI171531244
I24664
sI1111486325
I28234
sI1060363310
I34780
sI1060363311
I34780
sI1060363312
I34780
sI171514869
I28230
sI171512905
I34810
sI222001679
I34815
sI918458217
I28232
sI171517119
I28230
sI918458219
I28232
sI918458226
I34810
sI916282551
I34816
sI1045482988
I34813
sI171531466
I24664
sI171531467
I24664
sI171531487
I24664
sI171531488
I24664
sI949542113
I34722
sI171531491
I24664
sI171531492
I24664
sI915037447
I24664
sI171531528
I24664
sI171531533
I24664
sI915037454
I28234
sI171531536
I24664
sI171531543
I24664
sI171531544
I24664
sI171531545
I24664
sI171531546
I24664
sI171531547
I24664
sI915037468
I24664
sI171531549
I24664
sI171531552
I24664
sI915037475
I24664
sI171531572
I24664
sI171531575
I24664
sI171531576
I24664
sI1111486327
I28234
sI171531581
I24664
sI215644725
I24664
sI1045486915
I28235
sI1045486916
I28235
sI1045486917
I28235
sI1045486918
I28235
sI979688775
I34810
sI1045486920
I28235
sI171531593
I24664
sI1045486922
I28235
sI979688779
I27865
sI1045486924
I28235
sI979688781
I27865
sI979688782
I27865
sI171531599
I24664
sI979688784
I34810
sI979688785
I27865
sI979688786
I27865
sI1045486931
I28235
sI1045486932
I28235
sI1045486933
I28235
sI1045486934
I28235
sI1045486935
I28235
sI1045486936
I28235
sI1045486937
I28235
sI1045486938
I28235
sI915037531
I24664
sI1045486940
I28235
sI171531613
I24664
sI1045486942
I28235
sI1045486943
I28235
sI1045486944
I28235
sI1045486945
I28235
sI1045486946
I28235
sI1045486947
I28235
sI1045486948
I28235
sI1045486949
I28235
sI1045486950
I28235
sI1045486951
I28235
sI1045486952
I28235
sI1045486953
I28235
sI1045486954
I28235
sI1045486955
I28235
sI1045486956
I28235
sI1045486957
I28235
sI1045486958
I28235
sI1045486959
I28235
sI1045486960
I28235
sI1045486961
I28235
sI1045486962
I28235
sI1045486963
I28235
sI1045486964
I28235
sI1045486965
I28235
sI1045486966
I28235
sI1045486967
I28235
sI1045486968
I28235
sI1045486969
I28235
sI1045486970
I34780
sI1045486971
I34780
sI1045486972
I28235
sI1045486973
I28235
sI1045486974
I28235
sI1045486975
I28235
sI1045486976
I28235
sI1045486977
I28235
sI1045486978
I28235
sI171531663
I24664
sI171531664
I24664
sI915037589
I34722
sI915037590
I34722
sI274783645
I27865
sI171531684
I34816
sI915037610
I34722
sI24862148
I34816
sI24862160
I34816
sI24862167
I34816
sI24862168
I34816
sI215673570
I34810
sI171531738
I34816
sI24862171
I34816
sI915037661
I28234
sI915037662
I28234
sI24862191
I34816
sI24862194
I34816
sI335455486
I28232
sI914988655
I34810
sI171531772
I24664
sI915004925
I24664
sI24862208
I34816
sI24862218
I34816
sI171531788
I24664
sI915037722
I34812
sI915037723
I34812
sI915037725
I34811
sI915037726
I34811
sI335455493
I28235
sI1045479717
I34813
sI24862251
I34816
sI24862255
I34816
sI915004999
I24664
sI275981580
I28230
sI915005002
I24664
sI914902969
I34816
sI915037796
I34812
sI915037797
I34812
sI915037798
I34811
sI915037799
I34811
sI915037800
I34812
sI915037801
I34812
sI915041033
I28228
sI24862323
I34816
sI24862334
I27865
sI24862337
I27865
sI915037830
I34811
sI915037831
I34811
sI915037832
I34811
sI915037833
I34811
sI915037834
I34811
sI915037835
I34811
sI915037836
I34811
sI24862375
I34816
sI24862376
I34816
sI338857927
I28230
sI24862382
I27865
sI171519674
I34811
sI275504831
I34780
sI275504847
I34813
sI243541283
I34811
sI1060360143
I34780
sI1060360144
I34780
sI275504866
I34780
sI275504877
I34780
sI243541288
I34811
sI24881017
I24664
sI275506474
I34722
sI275504901
I34813
sI915005195
I24664
sI915005196
I24664
sI275504923
I34780
sI917382448
I28234
sI171517234
I34816
sI171517235
I34816
sI915005244
I27865
sI915005245
I27865
sI915005259
I24664
sI915005260
I24664
sI1045494413
I27865
sI1132296846
I34813
sI1132296847
I34813
sI915038052
I28228
sI915038053
I28228
sI24864062
I27865
sI1060289175
I34780
sI1060289176
I34780
sI915028633
I28236
sI335455556
I28235
sI1045491099
I28235
sI335455557
I28235
sI915034099
I28236
sI275506508
I34722
sI171511803
I27865
sI916273833
I34811
sI335455575
I28231
sI24880474
I34722
sI335458940
I28232
sI275501062
I34780
sI24862765
I28230
sI171517278
I34816
sI24862782
I28230
sI914997405
I28232
sI915038323
I28232
sI915038324
I28232
sI243541353
I28235
sI171517294
I34816
sI275501085
I34780
sI171517302
I28230
sI171511841
I27865
sI171517306
I34816
sI275498076
I34780
sI915038453
I24664
sI915038454
I24664
sI1045448558
I28234
sI949543206
I28234
sI335455626
I28234
sI171511861
I27865
sI171517323
I34816
sI915038548
I24664
sI171520988
I34722
sI886006124
I27865
sI886006125
I34810
sI243541398
I34813
sI24863171
I28234
sI915038674
I24664
sI915038675
I24664
sI915038676
I24664
sI24863203
I34811
sI243542158
I27865
sI275505732
I34813
sI275505749
I34813
sI275505761
I34813
sI275505810
I34722
sI275505811
I34722
sI222001949
I34814
sI999963424
I34814
sI338857833
I24664
sI171517390
I28230
sI979707343
I34722
sI915038970
I24664
sI915038971
I24664
sI275505962
I28235
sI915039019
I34811
sI915039020
I34811
sI948233011
I34812
sI948233012
I34812
sI948233013
I34812
sI948233014
I34812
sI275505987
I28235
sI275505988
I28235
sI275506003
I28235
sI1045488477
I28235
sI1045488478
I28235
sI1045488479
I28235
sI1045488480
I28235
sI1045488481
I28235
sI1045488482
I28235
sI1045488483
I28235
sI1045488484
I28235
sI1045488485
I28235
sI1045488486
I28235
sI1045488487
I28235
sI1045488488
I28235
sI1045488489
I28235
sI1045488490
I28235
sI1045488491
I28235
sI1045488492
I28235
sI1045488493
I28235
sI1045488494
I28235
sI1045488495
I28235
sI1045488496
I28235
sI1045488497
I28235
sI1045488498
I28235
sI1045488499
I28235
sI1045488500
I28235
sI1045488501
I28235
sI1045488502
I28235
sI1045488503
I28235
sI1045488504
I28235
sI1045488505
I28235
sI1045488506
I28235
sI1045488507
I28235
sI1045488508
I28235
sI1045488509
I28235
sI1045488510
I28235
sI1045488511
I28235
sI1045488512
I28235
sI1045488513
I28235
sI1045488514
I28235
sI1045488515
I28235
sI1045488516
I28235
sI1045488517
I28235
sI1045488518
I28235
sI1045488520
I28235
sI1045488521
I28235
sI1045488522
I28235
sI1045488523
I28235
sI1045488526
I28235
sI1045488528
I28235
sI1045488529
I28235
sI1045488530
I28235
sI1045488531
I28235
sI1045488532
I28235
sI1045488533
I28235
sI1045488534
I28235
sI1045488535
I28235
sI1045488536
I28235
sI1045488537
I28235
sI1045488538
I28235
sI1045488539
I28235
sI1045488540
I28235
sI1045488541
I28235
sI1045488542
I28235
sI1045488543
I28235
sI1045488544
I28235
sI1045488545
I28235
sI1045488546
I28235
sI1045488547
I28235
sI1045488548
I28235
sI1045488549
I28235
sI1045488550
I34780
sI1045488551
I34780
sI1045488552
I34780
sI1045488553
I34780
sI1045488554
I34780
sI1045488555
I34780
sI1045488556
I34780
sI1045488557
I34780
sI1045488558
I34780
sI1045488559
I34780
sI1045488560
I34780
sI1045488561
I34780
sI1045488562
I34813
sI1045488563
I34813
sI1045488564
I34813
sI1045488565
I34813
sI1045488566
I28235
sI1045488568
I28235
sI1045488569
I28235
sI1045488570
I34813
sI1045488571
I34813
sI1045488572
I34813
sI248177597
I34810
sI1045488574
I34813
sI1045488575
I34813
sI1045488576
I34813
sI1045488577
I34813
sI1045488578
I34813
sI1045488579
I34813
sI1045488580
I34813
sI1045488581
I28235
sI1045488582
I28235
sI1045488583
I28235
sI1045488584
I28235
sI275506121
I34813
sI1045483000
I34813
sI275506129
I34813
sI275506131
I34813
sI24862250
I34816
sI275506167
I34813
sI916268545
I24664
sI914990889
I34810
sI275506206
I34813
sI1103127583
I28234
sI1103127584
I28234
sI1103127585
I34780
sI1103127586
I34780
sI1103127587
I34780
sI1103127588
I34780
sI1103127590
I34780
sI1103127591
I34780
sI1103127592
I34780
sI1103127593
I34780
sI1103127594
I34780
sI1103127595
I34780
sI1103127596
I34780
sI1103127597
I34780
sI1103127598
I28234
sI1103127599
I28234
sI1103127600
I28234
sI1103127601
I28234
sI1103127602
I28234
sI1103127603
I28234
sI1103127604
I28234
sI1103127605
I28234
sI1103127606
I28234
sI1103127607
I28234
sI1103127608
I28234
sI1103127609
I28234
sI1103127610
I28234
sI1103127611
I28234
sI1103127612
I28234
sI1103127613
I28234
sI1103127614
I28234
sI1103127615
I28234
sI1103127616
I28234
sI1103127617
I28234
sI1103127618
I28234
sI1103127619
I28234
sI1103127620
I28234
sI1103127621
I28234
sI1103127622
I28234
sI1103127623
I28234
sI1103127624
I28234
sI1103127625
I28234
sI1103127626
I34780
sI1103127627
I34780
sI1103127628
I34780
sI1103127629
I34780
sI1103127630
I28234
sI1103127631
I28234
sI1103127632
I28234
sI1103127633
I28234
sI1103127634
I28234
sI24863832
I27865
sI915039335
I28232
sI915039336
I28232
sI915039337
I28232
sI915039338
I28232
sI915039349
I28232
sI338879608
I34814
sI338879609
I34814
sI243541525
I28234
sI851371179
I34815
sI851371180
I34815
sI851371183
I34815
sI915039444
I34811
sI1004561648
I34810
sI1004561649
I34810
sI1004561650
I34810
sI1004561651
I34810
sI1004561652
I34810
sI1004561653
I34810
sI275506424
I34722
sI275506425
I34722
sI275506432
I34722
sI275506435
I28236
sI24864010
I27865
sI24864021
I27865
sI275506457
I34722
sI275506462
I34722
sI275506467
I34722
sI916251945
I28230
sI916251946
I28230
sI275506475
I34722
sI275506477
I34722
sI275506491
I34722
sI275506494
I34722
sI275506502
I34722
sI275506506
I34722
sI915039563
I28232
sI915039564
I28232
sI842917198
I34816
sI275506512
I34722
sI171520340
I28234
sI916251990
I28230
sI916268601
I24664
sI243541096
I28228
sI914990651
I34810
sI275506532
I34813
sI275506533
I34813
sI275506546
I34813
sI24864146
I27865
sI914990660
I34810
sI914892358
I28234
sI24864191
I27865
sI24864196
I27865
sI24864203
I27865
sI24864215
I27865
sI171522981
I34780
sI948255654
I34722
sI24864243
I27865
sI275987369
I24664
sI948255658
I28235
sI24864259
I27865
sI24864266
I27865
sI1045480245
I34813
sI915023461
I28232
sI915023462
I28232
sI843736726
I28235
sI843736727
I28235
sI275506856
I28236
sI914990706
I34810
sI851601075
I28235
sI1074275956
I34780
sI1074275957
I34780
sI171523021
I34780
sI914990712
I34810
sI275506907
I28236
sI914990714
I34810
sI914990715
I34810
sI275506920
I28236
sI914990716
I34810
sI914990718
I34810
sI914990719
I34810
sI917710465
I28234
sI917710466
I28234
sI24864539
I27865
sI275506972
I28236
sI24864542
I27865
sI171517573
I34810
sI24864550
I27865
sI171517576
I34810
sI171517577
I34810
sI24864570
I27865
sI24864587
I27865
sI915040101
I28232
sI915040102
I28232
sI24864616
I27865
sI275507050
I28236
sI24880786
I28232
sI24864625
I27865
sI24864632
I27865
sI24880788
I28232
sI24864640
I27865
sI24864658
I27865
sI24864674
I27865
sI24864683
I27865
sI216600904
I27865
sI24864694
I27865
sI275981983
I34816
sI222029763
I34813
sI222029777
I34780
sI222029778
I34780
sI222029786
I34815
sI24864732
I27865
sI171528530
I24664
sI916274175
I24664
sI915040275
I28230
sI915040276
I28230
sI171517618
I34810
sI24864816
I27865
sI915029006
I28232
sI243541689
I34810
sI24864862
I34810
sI171534434
I28228
sI171534437
I28228
sI915029009
I28232
sI24864872
I34810
sI915029010
I28232
sI851775848
I34816
sI171534450
I28228
sI851775849
I34816
sI171534456
I28228
sI171534460
I28228
sI171517632
I34816
sI851480939
I28234
sI171534468
I28228
sI24864901
I27865
sI171534470
I28228
sI851775852
I28235
sI1103128714
I34780
sI1103128715
I34780
sI1103128716
I28234
sI1103128717
I28234
sI171534478
I28228
sI171534479
I28228
sI1103128720
I34780
sI1103128721
I34780
sI1103128722
I34780
sI1103128723
I34780
sI1103128724
I34780
sI1103128725
I34780
sI1103128726
I34780
sI1103128727
I34780
sI1103128728
I34780
sI915040409
I28234
sI915040410
I34813
sI1103128731
I34780
sI1103128732
I28234
sI1103128733
I34780
sI24864926
I27865
sI1103128735
I34780
sI171534496
I28228
sI24864929
I27865
sI1103128738
I34780
sI1103128739
I34780
sI1103128740
I34780
sI1103128741
I34780
sI171534502
I28228
sI956524711
I34815
sI956524712
I34815
sI916252841
I28228
sI956524714
I34815
sI956524715
I34815
sI956524716
I34815
sI956524717
I34815
sI956524718
I34815
sI956524719
I34815
sI956524720
I34815
sI956524721
I34815
sI956524722
I34815
sI1103128755
I28234
sI1103128756
I28234
sI1103128757
I28234
sI1103128758
I34780
sI24880841
I24664
sI1103128760
I34780
sI1103128761
I34780
sI171534522
I28228
sI1103128763
I34780
sI1103128764
I28234
sI1103128765
I28234
sI1103128766
I28234
sI24864959
I27865
sI24864960
I27865
sI24864961
I34816
sI24864962
I34816
sI1103128771
I28234
sI1103128772
I28234
sI1103128773
I28234
sI1103128774
I28234
sI1103128775
I28234
sI1103128776
I28234
sI243541708
I34810
sI171534538
I28228
sI1103128779
I28234
sI1103128780
I28234
sI1103128781
I28234
sI24864974
I34816
sI24864977
I34816
sI24864978
I34816
sI24864982
I34816
sI24864985
I34816
sI275507420
I28236
sI24864993
I27865
sI24864994
I27865
sI1111484644
I28228
sI915023569
I28232
sI915040491
I28235
sI24865004
I27865
sI24865005
I27865
sI24865007
I27865
sI24865011
I27865
sI24865013
I27865
sI171534583
I28228
sI24865016
I27865
sI915040505
I28235
sI24865032
I27865
sI914990593
I34810
sI915040534
I28234
sI24880857
I24664
sI915040536
I28234
sI915040537
I28234
sI915040538
I28234
sI915040539
I28234
sI243541722
I28230
sI24865054
I35619
sI24865060
I35619
sI215640357
I34811
sI24865063
I35619
sI24865067
I35619
sI24865069
I35619
sI171517661
I34810
sI171534640
I28228
sI171534641
I28228
sI171517815
I34810
sI243541726
I34816
sI215640377
I34811
sI243541727
I34816
sI275212604
I28228
sI275212605
I28228
sI171517664
I34816
sI915040581
I34780
sI171534663
I28228
sI171534665
I28228
sI916253003
I28228
sI916253004
I28228
sI916253005
I28228
sI916253006
I28228
sI171534678
I28228
sI275507552
I28232
sI915023590
I28236
sI243541735
I34815
sI915023593
I28236
sI24880875
I24664
sI24865160
I35619
sI215640477
I34816
sI171521092
I34780
sI171517680
I34816
sI243541745
I34814
sI171534779
I28228
sI1121194400
I34780
sI915040725
I34780
sI915040726
I34780
sI171534807
I28228
sI24865245
I28230
sI915040735
I34811
sI171534835
I28228
sI1045480276
I34813
sI171523156
I28228
sI979692030
I28232
sI979692031
I28232
sI979692034
I24664
sI979692035
I24664
sI171534853
I28228
sI979692038
I24664
sI215673360
I28234
sI215640595
I34816
sI215640596
I34816
sI215673368
I28234
sI215640604
I34816
sI275507742
I34722
sI1073801760
I34780
sI1073801762
I34780
sI215640615
I34816
sI335461468
I27865
sI915008043
I27865
sI215673389
I28234
sI915040814
I34811
sI915008047
I27865
sI915008048
I27865
sI889535582
I28234
sI1035412421
I34780
sI24865341
I35619
sI889535585
I28230
sI171517708
I34810
sI889535586
I28230
sI1045480279
I34813
sI24866670
I34816
sI215673451
I34815
sI24865388
I35619
sI215673457
I34815
sI24865395
I35619
sI24865398
I35619
sI24865418
I28230
sI243541783
I34811
sI24865424
I27865
sI24865434
I27865
sI24865435
I27865
sI24865436
I27865
sI24865440
I27865
sI948234913
I34780
sI24865442
I27865
sI948234915
I28234
sI24865451
I27865
sI171535026
I28228
sI24865463
I27865
sI24865474
I27865
sI24865475
I27865
sI24865476
I27865
sI1103096538
I34816
sI1103096539
I34816
sI1103096540
I34816
sI1103096541
I34816
sI1103096542
I34816
sI1103096543
I34816
sI1103096544
I34816
sI1103096545
I34816
sI1103096546
I34816
sI1103096547
I34816
sI1103096548
I34816
sI1103096549
I34816
sI1103096550
I34816
sI1103096551
I34816
sI1103096552
I34816
sI1103096553
I34816
sI1103096554
I34816
sI1103096555
I34816
sI1103096556
I34816
sI1103096557
I34816
sI1103096558
I34816
sI1103096559
I34816
sI1103096560
I34816
sI1103096561
I34816
sI1103096562
I34816
sI1103096563
I34816
sI1103096564
I34816
sI1103096565
I34816
sI1103096566
I34816
sI1103096567
I34816
sI1103096568
I34816
sI1103096569
I34816
sI1103096570
I34816
sI1103096571
I34816
sI1103096572
I34816
sI1103096573
I34816
sI1103096574
I34816
sI1103096575
I34816
sI1103096576
I34816
sI1103096577
I34816
sI1103096578
I34816
sI1103096579
I34816
sI1103096580
I34816
sI1103096581
I34816
sI1103096582
I34816
sI1103096583
I34816
sI1103096584
I34816
sI1103096585
I34816
sI1103096586
I34816
sI1103096587
I34816
sI1103096588
I34816
sI1103096589
I34816
sI1103096590
I34816
sI24865551
I27865
sI1103096592
I34816
sI1103096593
I34816
sI1103096594
I34816
sI1103096595
I34816
sI1103096596
I34816
sI1103096597
I34816
sI1103096598
I34816
sI1103096599
I34816
sI1103096600
I34816
sI1103096601
I34816
sI1103096602
I34816
sI1103096603
I34816
sI1103096604
I34816
sI1103096605
I34816
sI1103096606
I34816
sI1103096607
I34816
sI1103096608
I34816
sI171535137
I28228
sI915041068
I28228
sI24865583
I28230
sI24865591
I28230
sI24865605
I28230
sI24864567
I27865
sI243542239
I27865
sI171517759
I34810
sI915008394
I27865
sI171535246
I28232
sI171535250
I28232
sI171535266
I28232
sI171517766
I34810
sI243541992
I35619
sI215673769
I28230
sI215673770
I28230
sI171517767
I34810
sI24865708
I28234
sI215673775
I28230
sI915008438
I27865
sI915008439
I27865
sI915008453
I27865
sI915008454
I27865
sI24880973
I24664
sI915008468
I27865
sI335456079
I34811
sI171535328
I28228
sI171535342
I28228
sI917761011
I27865
sI917761012
I27865
sI275982165
I28230
sI915008517
I34810
sI171535391
I28232
sI24865824
I28230
sI917383004
I28234
sI171517791
I34810
sI171512331
I27865
sI275976716
I28230
sI24870071
I34780
sI335456099
I34811
sI171528718
I24664
sI335456103
I34811
sI335456107
I34811
sI915018262
I24664
sI915018263
I24664
sI24881005
I24664
sI914975898
I24664
sI914975899
I24664
sI338858522
I34780
sI914975907
I24664
sI171520027
I34811
sI24865973
I28234
sI915008702
I34810
sI915008703
I34810
sI915008704
I27865
sI171535560
I28228
sI915041483
I34815
sI24881016
I24664
sI171517817
I34810
sI171535576
I28228
sI915008729
I34810
sI914975962
I24664
sI914975963
I24664
sI914975964
I24664
sI243541882
I34811
sI914975966
I24664
sI914975967
I24664
sI914975968
I24664
sI914975969
I24664
sI915008738
I34810
sI914975971
I24664
sI914975972
I24664
sI914975973
I24664
sI24866024
I28234
sI335456125
I34811
sI275987670
I24664
sI24866056
I28234
sI215641353
I34814
sI338881802
I34814
sI915008780
I27865
sI24866063
I28234
sI24866067
I28234
sI24866080
I28230
sI24866094
I28234
sI24866110
I27865
sI914976063
I24664
sI918469856
I28232
sI914976075
I24664
sI171535694
I28228
sI918547791
I24664
sI916268942
I27865
sI171523301
I28228
sI275213666
I28228
sI878263526
I34780
sI24866150
I34810
sI171517841
I34810
sI275213672
I28228
sI918469863
I24664
sI916268946
I27865
sI171523304
I28228
sI918469865
I27865
sI1045491064
I28235
sI1045491065
I28235
sI1045491066
I28235
sI1045491067
I28235
sI1045491068
I28235
sI1045491069
I28235
sI1045491070
I28235
sI1045491071
I28235
sI1045491072
I28235
sI1045491073
I28235
sI1045491074
I28235
sI1045491075
I28235
sI1045491076
I28235
sI1045491077
I28235
sI1045491078
I28235
sI1045491079
I28235
sI1045491080
I28235
sI918469868
I34814
sI1045491082
I28235
sI1045491083
I28235
sI1045491084
I34780
sI1045491085
I28235
sI1045491086
I34780
sI914976143
I27865
sI1045491088
I34780
sI1045491089
I34780
sI1045491090
I34780
sI1045491092
I34780
sI1045491094
I34780
sI1045491095
I34780
sI1045491096
I34780
sI1045491097
I34780
sI1045491098
I34780
sI918469871
I24664
sI1045491100
I28235
sI1045491101
I28235
sI171535776
I28232
sI24866211
I28230
sI24866214
I28230
sI24866224
I28230
sI171535793
I28232
sI243541918
I28230
sI24866230
I28230
sI24866232
I28230
sI915041722
I28230
sI915041723
I28230
sI857664958
I34810
sI24866245
I34810
sI24866246
I34810
sI914991009
I34810
sI24866248
I34810
sI914976202
I27865
sI24866251
I34810
sI914976204
I27865
sI24866254
I34810
sI914976212
I28231
sI948235738
I34811
sI171535835
I28232
sI24866268
I34810
sI171535838
I28232
sI24866271
I34810
sI915041760
I28232
sI915041761
I28232
sI24866275
I34810
sI24866278
I34810
sI24866280
I34810
sI24866292
I34810
sI24866293
I34810
sI24866297
I34816
sI24866303
I34810
sI24866309
I34810
sI24866314
I34810
sI171514583
I28230
sI171535893
I28228
sI999962729
I34814
sI275508761
I24664
sI916254245
I28228
sI24866347
I34810
sI24866352
I34810
sI24866355
I34810
sI24866356
I34810
sI275213877
I28228
sI24866360
I34810
sI24866362
I34810
sI918464437
I27865
sI24866371
I34810
sI918464438
I28234
sI848777825
I34814
sI24866376
I34810
sI24866377
I34810
sI918464439
I27865
sI914996432
I27865
sI914976335
I24664
sI243541944
I28230
sI848777827
I34814
sI915041883
I28230
sI915041884
I28230
sI24866400
I34816
sI24866405
I34816
sI24866408
I34816
sI918464444
I34810
sI24866411
I34810
sI24866412
I34810
sI24866413
I34810
sI24866415
I34810
sI24866417
I34810
sI24866419
I34810
sI918464446
I34810
sI24866423
I34816
sI24866427
I34816
sI918464448
I28232
sI24866434
I34816
sI918464449
I28232
sI335456194
I34811
sI24866450
I34814
sI24866454
I34814
sI24866456
I34814
sI24866461
I34815
sI24866462
I34815
sI918464453
I34810
sI24866464
I34815
sI914976421
I24664
sI24866470
I34814
sI24866471
I34814
sI215641768
I34815
sI215641769
I34815
sI215641775
I34815
sI215641778
I34815
sI24866484
I34814
sI24866485
I34814
sI918464457
I28234
sI24866489
I34815
sI24866490
I34815
sI171517898
I34810
sI24866495
I34815
sI24866496
I34815
sI24866498
I34815
sI24866499
I34815
sI24866503
I34815
sI918464460
I34810
sI24866507
I34815
sI24866515
I34815
sI24866520
I34815
sI918464463
I28234
sI916274469
I28228
sI918464464
I27865
sI24866531
I34815
sI916274470
I28228
sI171517905
I34810
sI171536104
I34816
sI171536106
I34816
sI275214060
I28228
sI171517906
I34810
sI171536113
I34816
sI24866546
I34810
sI918464467
I27865
sI24866551
I34810
sI24866553
I34810
sI24866554
I34816
sI24866556
I34816
sI24866562
I34816
sI171512449
I27865
sI24866568
I34816
sI24866571
I34816
sI24866572
I34816
sI24866573
I34816
sI24866578
I34816
sI275987758
I24664
sI24866590
I34816
sI24866592
I34816
sI24866600
I34810
sI24866601
I34810
sI24866612
I34816
sI24866613
I34810
sI335456223
I34811
sI24866620
I34810
sI24866623
I34810
sI24866624
I34810
sI24866626
I34810
sI24866628
I34810
sI24866629
I34810
sI916276336
I24664
sI918508173
I34810
sI24866650
I34815
sI918508175
I24664
sI275987843
I24664
sI275509094
I24664
sI275509096
I24664
sI24866666
I34816
sI24866669
I34816
sI1111486318
I28234
sI1111486319
I28234
sI1111486320
I28234
sI1111486321
I28234
sI1111486322
I28234
sI1111486323
I28234
sI1111486324
I28234
sI915009397
I34816
sI915009398
I34816
sI915009399
I34816
sI1111486328
I34722
sI1111486329
I34722
sI917755910
I28231
sI24866698
I34816
sI275987778
I24664
sI171517935
I34810
sI1121939360
I27865
sI1121939361
I27865
sI915009450
I34810
sI915009451
I34810
sI915042224
I28236
sI915042225
I28236
sI24866743
I34780
sI24866745
I34780
sI24866750
I34780
sI243542005
I28230
sI24866753
I34780
sI24866756
I34780
sI914990989
I34810
sI24866766
I34780
sI24866767
I34780
sI916254672
I27865
sI275987745
I24664
sI979704823
I28232
sI915009499
I34810
sI915009500
I34810
sI24866783
I34780
sI1045491693
I34813
sI1045491694
I34813
sI1045491695
I34813
sI1045491696
I34813
sI1045491697
I34813
sI1045491698
I34813
sI1045491699
I34813
sI1045491700
I34813
sI1045491701
I34813
sI1045491702
I34813
sI1045491703
I34813
sI1045491704
I34813
sI1045491705
I34813
sI1045491706
I34813
sI1045491707
I34813
sI1045491708
I34813
sI1045491709
I34813
sI1045491710
I34813
sI1045491711
I34813
sI1045491712
I34813
sI1045491713
I34813
sI1045491714
I34813
sI1045491715
I34813
sI1045491716
I34813
sI1045491717
I34813
sI1045491718
I34813
sI1045491719
I34813
sI1045491720
I34813
sI1045491721
I34813
sI1045491722
I34813
sI1045491723
I34813
sI1045491724
I34813
sI1045491725
I34813
sI1045491726
I34813
sI1045491727
I34813
sI1045491728
I34813
sI1045491729
I34813
sI1045491730
I34813
sI1045491731
I34813
sI1045491732
I34813
sI24866837
I34780
sI916254742
I27865
sI1045491735
I34813
sI1045491736
I34813
sI1045491737
I34813
sI1045491738
I34813
sI1045491739
I34813
sI1045491740
I34813
sI1045491741
I34813
sI1045491742
I34813
sI1045491743
I34813
sI1045491744
I34813
sI1045491745
I34813
sI1045491746
I34813
sI1045491747
I34813
sI24866852
I34780
sI1045491749
I34813
sI1045491750
I34813
sI1045491751
I34813
sI1045491752
I34813
sI24866859
I34780
sI24866870
I34813
sI24866873
I34813
sI171516784
I28230
sI915009605
I34810
sI275987810
I24664
sI24866896
I34780
sI275987811
I24664
sI24866900
I34780
sI24866905
I34780
sI275987813
I24664
sI275987814
I24664
sI275987815
I24664
sI916269074
I34810
sI24866930
I34814
sI24866932
I34814
sI24866933
I34814
sI24866934
I34814
sI24866936
I34814
sI24866938
I34814
sI915042427
I28232
sI24866942
I34814
sI24866943
I34814
sI24866944
I34814
sI24866945
I34814
sI24866946
I34814
sI24866947
I34814
sI24866950
I34814
sI914976203
I27865
sI24866964
I34814
sI24866965
I34814
sI24866966
I28234
sI335456281
I34780
sI24866971
I28234
sI24866972
I34814
sI24866973
I34814
sI24866974
I28234
sI915045745
I34816
sI916269084
I34810
sI24866988
I28234
sI171517981
I34810
sI335456286
I34780
sI24867001
I34813
sI171517992
I34810
sI335456297
I34780
sI215642363
I34816
sI24867076
I34722
sI915042565
I28232
sI24867084
I34722
sI24867085
I34722
sI24867086
I34722
sI275214608
I28232
sI1120746883
I34780
sI275214616
I28232
sI24867098
I34722
sI979562780
I34811
sI979562781
I34811
sI979562782
I34811
sI979562783
I34811
sI916320547
I24664
sI24867108
I34722
sI24867121
I34813
sI24867122
I28235
sI24867123
I28235
sI24867125
I28235
sI24867126
I34813
sI24867127
I28235
sI24867128
I28235
sI24867129
I28235
sI24867130
I34813
sI24867132
I34780
sI24867136
I28235
sI916269110
I24664
sI24867150
I28235
sI24867153
I28235
sI24867155
I28235
sI24867156
I28235
sI24867157
I34780
sI914991161
I34810
sI24867162
I28235
sI1120746895
I34813
sI243542074
I27865
sI24867166
I28235
sI24867171
I34780
sI24867173
I34780
sI24867174
I34780
sI1120746897
I28235
sI24867178
I34813
sI24867181
I34813
sI24867183
I34813
sI24867184
I34722
sI24867185
I28235
sI24867187
I28235
sI215675252
I28230
sI24867190
I28235
sI24867193
I28235
sI1120746901
I28235
sI275987863
I24664
sI24867213
I28235
sI915042717
I34811
sI915042718
I34811
sI216601328
I27865
sI171517887
I34810
sI915042730
I34811
sI171518024
I34810
sI171517888
I34810
sI275987874
I24664
sI914977238
I27865
sI914977239
I27865
sI335456335
I34780
sI171517890
I34810
sI275114144
I28231
sI215641447
I34814
sI851472961
I34815
sI851472962
I34815
sI851472963
I34815
sI851472964
I34815
sI851472965
I34815
sI851472966
I28230
sI851472967
I28230
sI851472968
I28230
sI851472969
I28230
sI851472970
I28230
sI915010123
I24664
sI851472972
I28230
sI851472973
I28230
sI851472974
I34810
sI915042895
I28228
sI915042896
I28228
sI915042897
I28228
sI915042898
I28228
sI915042899
I28228
sI915042900
I28228
sI275987897
I24664
sI335456356
I28228
sI275509865
I24664
sI275509867
I24664
sI171517894
I34810
sI335456362
I28228
sI243542130
I27865
sI914977470
I27865
sI915043019
I28228
sI915043020
I28228
sI215642838
I34816
sI215642839
I34816
sI215642841
I34815
sI215642842
I34815
sI243542138
I27865
sI171518075
I28230
sI219476710
I34810
sI171518076
I34816
sI914958462
I28232
sI215642885
I34816
sI215642886
I34816
sI215642887
I34816
sI215642888
I34816
sI215642891
I34816
sI215642894
I34816
sI215642895
I34816
sI215642896
I34816
sI215642897
I34816
sI915024003
I28236
sI915024004
I28236
sI171518086
I34816
sI914996702
I34810
sI1045492534
I34813
sI1045492535
I28235
sI1045492536
I28235
sI1045492537
I34780
sI1045492539
I34780
sI1045492540
I34780
sI1045492541
I34780
sI1045492542
I34780
sI1045492543
I34780
sI1045492544
I34780
sI1045492545
I34813
sI1045492546
I34813
sI1045492547
I34813
sI1045492548
I34813
sI1045492549
I34813
sI1045492550
I34813
sI1045492551
I34813
sI1045492552
I34813
sI1045492553
I34813
sI1045492554
I34813
sI1045492555
I34813
sI1045492556
I34813
sI851486861
I28232
sI1103128718
I34780
sI1103128719
I34780
sI171518096
I34816
sI338858812
I34780
sI171518101
I34816
sI171517903
I34810
sI1103128729
I34780
sI1103128730
I34780
sI171518108
I34816
sI24881310
I24664
sI1103128736
I34780
sI1103128737
I34780
sI171518114
I34816
sI335456419
I34816
sI1103128742
I34780
sI1103128743
I28234
sI1103128744
I28234
sI956524713
I34815
sI171529044
I24664
sI1103128746
I28234
sI1103128747
I28234
sI1103128748
I28234
sI1103128749
I28234
sI1103128750
I28234
sI215675928
I35619
sI1103128751
I28234
sI171516817
I28230
sI1103128752
I28234
sI1103128753
I28234
sI914977832
I34810
sI914977833
I34810
sI1103128754
I28234
sI335456435
I28235
sI921334843
I28230
sI921334844
I28230
sI921334846
I28230
sI921334847
I28230
sI921334848
I28230
sI921334849
I28230
sI921334850
I28230
sI921334851
I28230
sI921334852
I34816
sI921334853
I28230
sI1103128759
I34780
sI335456440
I28235
sI1103128762
I34780
sI915043449
I28228
sI915043450
I28228
sI1103128767
I28234
sI1103128768
I28234
sI1103128769
I28234
sI914996759
I27865
sI1103128770
I28234
sI915043474
I28228
sI915043475
I28228
sI915043476
I28228
sI915043477
I28228
sI915043493
I28228
sI915043494
I28228
sI915043495
I28228
sI915043496
I28228
sI1103128777
I28234
sI1103128778
I28234
sI243542222
I34810
sI857634016
I34816
sI979563749
I28234
sI916255982
I34722
sI916255983
I34722
sI275988008
I24664
sI915043572
I28228
sI915043573
I28228
sI917763320
I34810
sI917763321
I34810
sI916255995
I34722
sI916255996
I34722
sI916256018
I34722
sI916256019
I34722
sI275215657
I28232
sI914991325
I24664
sI916269279
I34810
sI215643453
I34810
sI1045486919
I28235
sI243542241
I27865
sI215643468
I34810
sI215643495
I34810
sI915040487
I28234
sI914978161
I27865
sI914978162
I27865
sI914978163
I34810
sI914978164
I34810
sI914978166
I34810
sI1045486921
I28235
sI915040492
I28235
sI275988035
I24664
sI171518192
I34816
sI243542257
I27865
sI915011003
I27865
sI171518197
I34816
sI919930586
I34810
sI24865015
I27865
sI915024121
I28235
sI915024122
I28235
sI915011038
I27865
sI915011039
I27865
sI948237801
I28235
sI948237802
I28235
sI1045486925
I28235
sI275977129
I34816
sI915011071
I27865
sI979695107
I28232
sI979695108
I28232
sI979695109
I28232
sI979695110
I28232
sI1045486926
I28235
sI915011093
I27865
sI915011104
I27865
sI1045486927
I28235
sI171518218
I34816
sI915024139
I28228
sI215676488
I34816
sI915011145
I27865
sI907343436
I34813
sI243542285
I27865
sI1045486928
I28235
sI1045486929
I28235
sI915040535
I28234
sI1045486930
I28235
sI171519020
I28234
sI914978486
I27865
sI914978487
I27865
sI1060294372
I34780
sI915044033
I24664
sI915044034
I24664
sI915044069
I24664
sI171529169
I28232
sI1120747139
I28235
sI171518254
I34816
sI171518255
I34816
sI243542321
I27865
sI24866779
I34780
sI916322101
I28232
sI855177034
I34816
sI171521680
I28235
sI950302549
I34815
sI950302550
I34815
sI950302551
I34815
sI950302552
I34815
sI950302553
I34815
sI950302554
I34815
sI950302555
I34814
sI950302556
I34816
sI171518269
I34816
sI1120747157
I34813
sI1120747158
I28235
sI171518273
I34816
sI1120747159
I28235
sI215644051
I34810
sI215644061
I34810
sI215644081
I34810
sI171528850
I24664
sI275212617
I28228
sI243542344
I27865
sI215644117
I34810
sI914985602
I28230
sI215644124
I34810
sI243542345
I27865
sI215644151
I34810
sI215644152
I34810
sI216601600
I27865
sI171520125
I34814
sI915011653
I24664
sI915011654
I24664
sI915011656
I27865
sI915011657
I27865
sI215656338
I34810
sI914991462
I24664
sI914991464
I24664
sI914978940
I27865
sI171518314
I34816
sI215644287
I34810
sI916274881
I34811
sI215644306
I24664
sI171518320
I34816
sI880277675
I28232
sI880277676
I28232
sI880277678
I28232
sI880277679
I28232
sI880277680
I28232
sI171518323
I34816
sI24881524
I24664
sI976142034
I34815
sI171521223
I34813
sI915044607
I28234
sI915011848
I34810
sI915011860
I34810
sI915044629
I28234
sI24881543
I24664
sI215644493
I24664
sI338859067
I27865
sI215644516
I24664
sI171518356
I34816
sI915011966
I27865
sI915011967
I27865
sI914979200
I27865
sI914979201
I27865
sI914979212
I24664
sI171518363
I34816
sI915044790
I28234
sI915044791
I28234
sI914979303
I35619
sI914979304
I35619
sI215640487
I34816
sI915044848
I24664
sI915044849
I24664
sI805730804
I24664
sI216627704
I34722
sI216627705
I34722
sI1135213064
I34816
sI1135213065
I34816
sI24881581
I24664
sI222001688
I34815
sI222001692
I34815
sI1135213086
I34816
sI1135213088
I34816
sI915044909
I24664
sI222001712
I34815
sI915044917
I28234
sI915044918
I28234
sI915044919
I28234
sI915044920
I28234
sI171518389
I34815
sI222001739
I34815
sI222001749
I34814
sI215644766
I24664
sI222001774
I34814
sI171518397
I34815
sI914979442
I24664
sI914979443
I24664
sI1045494388
I34814
sI1045494389
I34814
sI1045494390
I34814
sI1045494391
I34814
sI1045494392
I34814
sI1045494393
I28234
sI1045494394
I28234
sI1045494395
I34813
sI1045494396
I34813
sI1045494397
I34813
sI1045494398
I34813
sI1045494399
I34813
sI1045494400
I34813
sI1045494401
I34813
sI1045494402
I34813
sI1045494403
I34813
sI1045494404
I34813
sI1045494405
I27865
sI1045494406
I27865
sI1045494407
I27865
sI1045494408
I27865
sI1045494409
I27865
sI1045494410
I27865
sI1045494411
I27865
sI1045494412
I27865
sI1132296845
I34813
sI1045494414
I27865
sI1045494415
I27865
sI1045494416
I27865
sI1045494417
I27865
sI1045494418
I27865
sI222001827
I34814
sI222001828
I34722
sI222001832
I34814
sI222001833
I34814
sI222001834
I34814
sI171518407
I34815
sI215644854
I24664
sI215644855
I24664
sI222001854
I34814
sI222001874
I34814
sI222001878
I34814
sI222001879
I34814
sI222001880
I34814
sI222001881
I34814
sI222001882
I34814
sI222001883
I34814
sI222001887
I34722
sI222001889
I34814
sI979565325
I28230
sI222001943
I34813
sI915045148
I28232
sI915045149
I28232
sI222001968
I34813
sI914979634
I24664
sI914979635
I24664
sI914979636
I27865
sI914979637
I27865
sI222001974
I34722
sI215644983
I24664
sI914979648
I24664
sI215644997
I24664
sI215645001
I24664
sI915045194
I28235
sI915045195
I28235
sI915045196
I28235
sI915045197
I28235
sI915045212
I28232
sI915045213
I28232
sI24869751
I34816
sI915013443
I27865
sI950304580
I28230
sI215646021
I24664
sI243542378
I34814
sI915045315
I28232
sI275497633
I28234
sI275496785
I34811
sI171529383
I24664
sI215646038
I24664
sI979795801
I28228
sI24869916
I34816
sI979795802
I28228
sI24869933
I34816
sI24869949
I34816
sI24869950
I34816
sI999960300
I34814
sI950153854
I35619
sI171534867
I28228
sI950153855
I35619
sI24870044
I34780
sI24870053
I34780
sI24870057
I34780
sI24870062
I34780
sI1035031752
I34780
sI24870068
I34780
sI24870069
I34780
sI24870070
I34780
sI1035031753
I34780
sI24870073
I34780
sI24870076
I34780
sI24870077
I34780
sI171521255
I34813
sI24870094
I34816
sI24870105
I28228
sI24866828
I34780
sI1121189130
I34813
sI915040813
I34811
sI915012889
I27865
sI915012890
I27865
sI275512603
I28234
sI275512608
I28234
sI335462279
I24664
sI215645490
I24664
sI171513058
I34810
sI915012942
I27865
sI915012943
I27865
sI275512658
I34814
sI275512670
I34814
sI275507773
I34722
sI805721320
I27865
sI915045746
I34816
sI915045747
I34816
sI915045754
I24664
sI215645577
I24664
sI215645583
I24664
sI914991683
I24664
sI863501719
I34815
sI863501720
I34815
sI863501723
I34815
sI863501724
I34815
sI863501725
I34815
sI863501726
I34815
sI171521263
I34813
sI919928253
I27865
sI919928254
I27865
sI805731790
I28236
sI805731791
I28236
sI805731792
I28236
sI915026025
I34814
sI311295453
I34816
sI311295454
I34816
sI171521265
I34813
sI275512813
I34814
sI311295471
I28229
sI338829695
I24664
sI915056578
I34816
sI914988928
I27865
sI275512837
I28234
sI275512847
I28234
sI275512848
I28234
sI275512852
I28234
sI275512857
I28234
sI275512858
I28234
sI275512861
I28234
sI275512869
I28234
sI275512870
I28234
sI275512871
I28234
sI275512880
I28234
sI275512885
I28234
sI275512886
I28234
sI915037469
I24664
sI275512899
I28234
sI915045961
I28230
sI915045962
I28230
sI275502349
I34780
sI275512918
I28234
sI275512924
I28234
sI275512928
I28234
sI275512930
I28234
sI275512945
I28234
sI24864944
I27865
sI916275134
I28228
sI243541798
I34811
sI915024490
I24664
sI275512994
I28234
sI275513002
I28234
sI24866472
I34814
sI915024501
I24664
sI915033671
I28234
sI24866844
I34780
sI171524050
I34810
sI275513089
I34814
sI914980613
I34810
sI914980614
I34810
sI914980615
I34810
sI914980616
I34810
sI275513101
I28234
sI275513102
I28234
sI1045593882
I34816
sI1045593883
I34816
sI1045593884
I34813
sI1045593885
I34813
sI1045593886
I34813
sI275513130
I28234
sI171529522
I28232
sI275513134
I28234
sI275513143
I28234
sI915024523
I24664
sI915013444
I27865
sI950304581
I28230
sI915011144
I27865
sI915013447
I27865
sI915013448
I27865
sI916252842
I28228
sI917378360
I34810
sI1060274006
I34780
sI1060274007
I34780
sI1060274008
I34780
sI1060274009
I28235
sI1060274010
I28235
sI1035031866
I34780
sI915046277
I28232
sI915046278
I28232
sI872677265
I28232
sI872677266
I28232
sI215646104
I28232
sI914980770
I27865
sI954204088
I28230
sI954204089
I28230
sI171525645
I34666
sI976142325
I28230
sI1069055948
I28235
sI1069055949
I28235
sI1069055950
I28235
sI1069055951
I28235
sI1069055952
I28235
sI335456375
I28228
sI915033680
I28234
sI915046369
I34780
sI915046370
I34780
sI915046382
I34780
sI915046395
I28232
sI915046396
I28232
sI915024554
I28230
s.