(dp1
I34816
(lp2
I171518636
aI243537249
aI1103096591
aI918455170
aI275973102
aI171518857
aI275121465
aI919930580
aI1114900393
aI1114900395
aI275154907
aI275154911
aI171509768
aI171509824
aI171509831
aI335462835
aI171510670
aI171510690
aI171510912
aI171510917
aI922324465
aI922324466
aI922324467
aI922324468
aI922324469
aI922324470
aI922324471
aI922324472
aI922324473
aI922324474
aI922324475
aI338857593
aI1062907157
aI338857605
aI338857606
aI976097051
aI976097052
aI976097053
aI976097054
aI976097055
aI918458222
aI338858125
aI851775847
aI848140353
aI851488198
aI338858690
aI338858698
aI338858704
aI338858708
aI338858709
aI338858711
aI976098014
aI287955067
aI338858727
aI338858736
aI275977100
aI171530676
aI338858991
aI338858994
aI338859001
aI338859008
aI338859034
aI275977588
aI275977631
aI275977632
aI275977633
aI979703371
aI979703372
aI979703374
aI979703375
aI979703379
aI275977860
aI275977895
aI914987384
aI914987383
aI875076016
aI875076017
aI914987632
aI171530701
aI918461181
aI918461182
aI24883324
aI915025738
aI1039866916
aI221977923
aI196297828
aI1054088686
aI842866288
aI842866290
aI842866292
aI1045503978
aI1045503979
aI1045503980
aI914989197
aI909353183
aI950509905
aI24864966
aI275980952
aI275980996
aI275981001
aI243540759
aI171516716
aI243540963
aI243540964
aI243540967
aI243540970
aI243540974
aI243540985
aI243540992
aI243540994
aI243540995
aI243540997
aI243541005
aI243541008
aI243541087
aI335455334
aI309601383
aI309601384
aI335455339
aI335455341
aI24880327
aI24880328
aI309601491
aI309601492
aI309601493
aI309601494
aI171517211
aI171517226
aI275981626
aI171517270
aI171517293
aI171517295
aI171517303
aI171517309
aI171517321
aI171517447
aI243541599
aI243541602
aI243541603
aI243541606
aI243541607
aI243541608
aI243541609
aI243541616
aI243541618
aI243541628
aI243541636
aI243541638
aI243541639
aI243541640
aI243541649
aI171517592
aI171517596
aI243541664
aI243541665
aI171517628
aI171517629
aI171517630
aI171517636
aI275982028
aI171517654
aI243541725
aI243541728
aI171517665
aI171517666
aI171517667
aI171517669
aI171517670
aI171517675
aI171517683
aI171517686
aI171517687
aI171517688
aI171517689
aI171517769
aI171517785
aI964740760
aI915056577
aI171518074
aI171518079
aI171518080
aI171518081
aI171518083
aI171518084
aI171518085
aI171518089
aI171518092
aI171518093
aI171518094
aI171518095
aI171518098
aI171518099
aI171518100
aI171518103
aI171518104
aI171518105
aI171518106
aI171518107
aI171518110
aI171518111
aI171518112
aI335456420
aI171518118
aI171518120
aI171518121
aI171518126
aI171518127
aI171518128
aI171518129
aI171518130
aI171518142
aI171518143
aI171518146
aI171518147
aI171518149
aI171518151
aI171518158
aI171518160
aI171518165
aI171518169
aI171518171
aI171518173
aI171518176
aI171518177
aI171518178
aI335456494
aI335456495
aI171518200
aI171518202
aI171518213
aI171518215
aI171518221
aI171518234
aI171518235
aI171518236
aI171518238
aI171518242
aI171518257
aI171518258
aI171518260
aI171518262
aI171518267
aI171518268
aI171518271
aI171518275
aI171518277
aI171518278
aI171518280
aI171518281
aI171518282
aI171518291
aI171518292
aI171518296
aI171518297
aI171518298
aI171518299
aI171518300
aI171518310
aI171518312
aI171518316
aI171518317
aI171518321
aI171518324
aI171518325
aI171518326
aI171518327
aI171518328
aI171518329
aI171518330
aI171518331
aI171518333
aI171518334
aI171518336
aI171518339
aI171518341
aI171518343
aI171518344
aI171518345
aI171518346
aI171518347
aI171518355
aI171518360
aI171518365
aI24881642
aI24881645
aI24881660
aI171518483
aI914991667
aI914991668
aI171518569
aI171518579
aI171518581
aI171518582
aI171518583
aI171518584
aI171518585
aI171518593
aI171518594
aI171518595
aI171518596
aI171518597
aI171518615
aI171518616
aI171518618
aI171518619
aI171518620
aI171518629
aI171518634
aI171518635
aI171518637
aI171518638
aI171518640
aI171518642
aI171518643
aI171518644
aI171518645
aI171518646
aI171518648
aI171518649
aI171518651
aI171518652
aI171518656
aI171518657
aI171518659
aI171518660
aI171518661
aI171518662
aI171518663
aI171518665
aI171518666
aI171518667
aI171518669
aI171518671
aI171518673
aI171518680
aI171518683
aI171518722
aI171518758
aI171518760
aI171518764
aI171518771
aI171518775
aI171518779
aI171518793
aI171518795
aI171518798
aI171518802
aI171518810
aI171518823
aI171518850
aI171518859
aI171518866
aI171518914
aI171518915
aI171518916
aI171518921
aI171518941
aI335458835
aI1062907155
aI1062907156
aI1062907158
aI1062907159
aI916270763
aI919514924
aI919514925
aI915025736
aI915025737
aI915025739
aI1061991084
aI24883403
aI24883404
aI171531641
aI1061991156
aI914993598
aI1061991086
aI1061991087
aI1061991154
aI1061991155
aI1061991157
aI335459208
aI1061991335
aI1061991336
aI1061991337
aI1061991338
aI335455305
aI842866287
aI842866289
aI1062385677
aI1062385678
aI1062385679
aI1062385680
aI171518301
aI171522512
aI335455340
aI171522631
aI171522632
aI171522896
aI171522919
aI216615400
aI171523130
aI909327429
aI171523148
aI171523523
aI964804446
aI964804447
aI964804448
aI916275531
aI916275532
aI916275533
aI916275534
aI1062388263
aI335463023
aI171525025
aI335463345
aI171525069
aI916276748
aI216614943
aI171518175
aI221977949
aI338858715
aI335465636
aI335465690
aI275991836
aI275991837
aI171517681
aI914902970
aI19452136
aI338874685
aI338874689
aI275173902
aI275173956
aI275173985
aI275174426
aI275174427
aI275174429
aI275174433
aI275174445
aI917755080
aI917755081
aI275240144
aI171535100
aI1061991085
aI806180454
aI806180455
aI917755733
aI917755876
aI287955001
aI243541002
aI243541007
aI287955039
aI287955041
aI287955047
aI287955052
aI287955054
aI171517673
aI24860821
aI171530753
aI171530761
aI335455335
aI335455338
aI171530886
aI1010306847
aI243541006
aI916282551
aI171531684
aI24862148
aI24862160
aI24862167
aI24862168
aI171531738
aI24862171
aI24862191
aI24862194
aI24862208
aI24862218
aI24862251
aI24862255
aI914902969
aI24862323
aI24862375
aI24862376
aI171517234
aI171517235
aI171517278
aI171517294
aI171517306
aI171517323
aI24862250
aI842917198
aI275981983
aI851775848
aI851775849
aI171517632
aI24864961
aI24864962
aI24864974
aI24864977
aI24864978
aI24864982
aI24864985
aI243541726
aI243541727
aI171517664
aI215640477
aI171517680
aI215640595
aI215640596
aI215640604
aI215640615
aI24866670
aI1103096538
aI1103096539
aI1103096540
aI1103096541
aI1103096542
aI1103096543
aI1103096544
aI1103096545
aI1103096546
aI1103096547
aI1103096548
aI1103096549
aI1103096550
aI1103096551
aI1103096552
aI1103096553
aI1103096554
aI1103096555
aI1103096556
aI1103096557
aI1103096558
aI1103096559
aI1103096560
aI1103096561
aI1103096562
aI1103096563
aI1103096564
aI1103096565
aI1103096566
aI1103096567
aI1103096568
aI1103096569
aI1103096570
aI1103096571
aI1103096572
aI1103096573
aI1103096574
aI1103096575
aI1103096576
aI1103096577
aI1103096578
aI1103096579
aI1103096580
aI1103096581
aI1103096582
aI1103096583
aI1103096584
aI1103096585
aI1103096586
aI1103096587
aI1103096588
aI1103096589
aI1103096590
aI1103096592
aI1103096593
aI1103096594
aI1103096595
aI1103096596
aI1103096597
aI1103096598
aI1103096599
aI1103096600
aI1103096601
aI1103096602
aI1103096603
aI1103096604
aI1103096605
aI1103096606
aI1103096607
aI1103096608
aI24866297
aI24866400
aI24866405
aI24866408
aI24866423
aI24866427
aI24866434
aI171536104
aI171536106
aI171536113
aI24866554
aI24866556
aI24866562
aI24866568
aI24866571
aI24866572
aI24866573
aI24866578
aI24866590
aI24866592
aI24866612
aI24866666
aI24866669
aI915009397
aI915009398
aI915009399
aI24866698
aI915045745
aI215642363
aI215642838
aI215642839
aI171518076
aI215642885
aI215642886
aI215642887
aI215642888
aI215642891
aI215642894
aI215642895
aI215642896
aI215642897
aI171518086
aI171518096
aI171518101
aI171518108
aI171518114
aI335456419
aI921334852
aI857634016
aI171518192
aI171518197
aI275977129
aI171518218
aI215676488
aI171518254
aI171518255
aI855177034
aI950302556
aI171518269
aI171518273
aI171518314
aI171518320
aI171518323
aI171518356
aI171518363
aI215640487
aI1135213064
aI1135213065
aI1135213086
aI1135213088
aI24869751
aI24869916
aI24869933
aI24869949
aI24869950
aI24870094
aI915045746
aI915045747
aI311295453
aI311295454
aI915056578
aI1045593882
aI1045593883
asI34722
(lp3
I976093693
aI976093694
aI215646797
aI215647850
aI976095129
aI338857256
aI338857819
aI215650275
aI215650764
aI915018388
aI915018389
aI918459964
aI915036586
aI915036587
aI216603486
aI1111486330
aI216604152
aI335454701
aI335454709
aI335454711
aI24880424
aI24880447
aI24880451
aI24880455
aI24880469
aI24880478
aI24880489
aI243541363
aI243541366
aI243541370
aI243541371
aI243541372
aI243541386
aI24880528
aI979707342
aI24867100
aI916276956
aI948251687
aI275990386
aI171520744
aI171520756
aI171520798
aI171520801
aI171520814
aI171520818
aI171520820
aI171520831
aI171520834
aI171520836
aI171520841
aI171520853
aI171520854
aI171520855
aI171520856
aI171520858
aI171520861
aI171520862
aI171520864
aI171520865
aI171520867
aI171520868
aI171520898
aI171520933
aI171520942
aI171520964
aI171520968
aI171520971
aI171520973
aI171520975
aI171520863
aI171521790
aI171521802
aI171521806
aI171521816
aI171521818
aI171521820
aI171521927
aI171521929
aI171521931
aI171521933
aI171521934
aI171521937
aI948255653
aI216613210
aI216613211
aI916276957
aI275990321
aI171526422
aI171526453
aI171526481
aI171526504
aI171526516
aI948259918
aI171521803
aI171521821
aI915035383
aI915035990
aI915035991
aI806148408
aI806148409
aI806148410
aI949542113
aI915037589
aI915037590
aI915037610
aI275506474
aI275506508
aI24880474
aI171520988
aI275505810
aI275505811
aI979707343
aI275506424
aI275506425
aI275506432
aI275506457
aI275506462
aI275506467
aI275506475
aI275506477
aI275506491
aI275506494
aI275506502
aI275506506
aI275506512
aI948255654
aI275507742
aI1111486328
aI1111486329
aI24867076
aI24867084
aI24867085
aI24867086
aI24867098
aI24867108
aI24867184
aI916255982
aI916255983
aI916255995
aI916255996
aI916256018
aI916256019
aI216627704
aI216627705
aI222001828
aI222001887
aI222001974
aI275507773
asI35619
(lp4
I872677719
aI171513859
aI171513865
aI171513439
aI171513442
aI171513450
aI171513461
aI171513464
aI171513465
aI171513467
aI171513469
aI171513475
aI171513506
aI171513848
aI171513869
aI171514165
aI275983852
aI275984594
aI275984595
aI275984601
aI275984602
aI275984604
aI275984663
aI275984664
aI950153848
aI950153849
aI950153850
aI950153851
aI950153852
aI950153853
aI950153856
aI950153857
aI950153858
aI950153859
aI950153860
aI950153861
aI950154420
aI335463658
aI335463659
aI335463662
aI335463664
aI335463667
aI196301452
aI950159491
aI950159905
aI196301418
aI196301422
aI196301423
aI196301426
aI196301428
aI196301429
aI196301433
aI196301434
aI196301441
aI196301443
aI196301453
aI196301455
aI196301457
aI196301458
aI196301459
aI196301464
aI275984603
aI24865054
aI24865060
aI24865063
aI24865067
aI24865069
aI24865160
aI24865341
aI24865388
aI24865395
aI24865398
aI243541992
aI215675928
aI914979303
aI914979304
aI950153854
aI950153855
asI28228
(lp5
I915046517
aI915046518
aI915041032
aI171535118
aI275448577
aI918455168
aI918455169
aI915014788
aI915014789
aI979698922
aI979698923
aI979698924
aI979698925
aI979698931
aI979698932
aI976094925
aI976094926
aI976094927
aI976095127
aI976095128
aI215648577
aI215648578
aI215648672
aI215648808
aI215648815
aI915016615
aI915016616
aI915017052
aI915017053
aI915017054
aI915017055
aI915017056
aI915017057
aI915017120
aI915017121
aI915017122
aI915017123
aI915017124
aI915017125
aI275451393
aI275451410
aI915025255
aI275213700
aI851480945
aI851480946
aI851480947
aI851480948
aI338859122
aI915025532
aI915025533
aI335458060
aI335458061
aI243541095
aI915020791
aI915020792
aI915020800
aI335458135
aI243540169
aI243540192
aI243540193
aI917381669
aI243540957
aI243540959
aI243540961
aI243540962
aI243541105
aI335456358
aI335456360
aI335456382
aI915024138
aI915025254
aI915025256
aI915025257
aI915025258
aI915042894
aI335458073
aI335458082
aI335458083
aI335458134
aI335458183
aI335458194
aI918466696
aI335458496
aI335458787
aI335458826
aI335458830
aI915026783
aI915026786
aI704033795
aI915026782
aI915026785
aI915027090
aI24884728
aI24884738
aI24884783
aI24884972
aI24885021
aI171522383
aI1004420025
aI171523054
aI171523084
aI171523086
aI171523089
aI171523091
aI171523102
aI171523103
aI171523104
aI171523106
aI171523107
aI171523161
aI171523169
aI171523170
aI171523179
aI171523207
aI171523211
aI171523222
aI171523225
aI171523226
aI171523243
aI171523248
aI171523254
aI171523255
aI171523274
aI171523275
aI171523280
aI171523281
aI171523282
aI171523286
aI171523288
aI171523291
aI171523296
aI171523305
aI171523306
aI171523308
aI171523311
aI171523318
aI171523321
aI171523324
aI171523327
aI171523330
aI171523336
aI171523361
aI916274468
aI171523374
aI171523386
aI171523390
aI171523394
aI171523395
aI171523409
aI171523413
aI171523416
aI171523426
aI171523427
aI171523430
aI171523431
aI171523444
aI171523448
aI171523454
aI171523467
aI171523473
aI171523475
aI915029401
aI171523490
aI171523491
aI915042893
aI171523509
aI171523550
aI171523561
aI171523566
aI171523579
aI171523580
aI275496612
aI275496629
aI275496740
aI916275132
aI916275133
aI916275135
aI916275365
aI916275560
aI916275561
aI24884727
aI916276453
aI243540185
aI916276654
aI916276655
aI916276656
aI916276657
aI915031571
aI915031585
aI916277171
aI916277172
aI916277173
aI916277174
aI916277190
aI915032576
aI915032577
aI171527111
aI275500067
aI957598842
aI957598843
aI957598844
aI957598846
aI917381670
aI949538196
aI275173951
aI275173954
aI918508170
aI918508176
aI916277191
aI275451411
aI915026784
aI915026787
aI915036728
aI243541094
aI915037029
aI915037030
aI915037058
aI915037059
aI915037060
aI915041033
aI915038052
aI915038053
aI243541096
aI171534434
aI171534437
aI171534450
aI171534456
aI171534460
aI171534468
aI171534470
aI171534478
aI171534479
aI171534496
aI171534502
aI916252841
aI171534522
aI171534538
aI1111484644
aI171534583
aI171534640
aI171534641
aI275212604
aI275212605
aI171534663
aI171534665
aI916253003
aI916253004
aI916253005
aI916253006
aI171534678
aI171534779
aI171534807
aI171534835
aI171523156
aI171534853
aI171535026
aI171535137
aI915041068
aI171535328
aI171535342
aI171535560
aI171535576
aI171535694
aI171523301
aI275213666
aI275213672
aI171523304
aI171535893
aI916254245
aI275213877
aI916274469
aI916274470
aI275214060
aI915042895
aI915042896
aI915042897
aI915042898
aI915042899
aI915042900
aI335456356
aI335456362
aI915043019
aI915043020
aI915043449
aI915043450
aI915043474
aI915043475
aI915043476
aI915043477
aI915043493
aI915043494
aI915043495
aI915043496
aI915043572
aI915043573
aI915024139
aI275212617
aI979795801
aI979795802
aI171534867
aI24870105
aI916275134
aI916252842
aI335456375
asI28229
(lp6
I215616412
aI311295471
asI28230
(lp7
I915024555
aI915024593
aI848561138
aI848561139
aI976098878
aI1114900389
aI1114900390
aI1114900391
aI1114900392
aI1114900394
aI950306751
aI950306752
aI954206158
aI954206159
aI954206160
aI954206161
aI954206162
aI275974406
aI275974409
aI275974417
aI275974418
aI275974419
aI275974420
aI275974423
aI275974430
aI915016003
aI915016010
aI1075284345
aI1075284346
aI24866007
aI24866013
aI872680776
aI1061989643
aI1062907148
aI338857553
aI338857554
aI338857557
aI338857565
aI338857567
aI338857569
aI338857571
aI954281233
aI338857579
aI338857581
aI338857623
aI338857626
aI338857628
aI338857631
aI338857633
aI338857639
aI338857644
aI338857645
aI338857647
aI338857650
aI338857657
aI338857658
aI338857662
aI338857663
aI338857665
aI338857669
aI338857674
aI338857678
aI338857682
aI338857919
aI338857925
aI338857929
aI338857936
aI915017864
aI915017865
aI914985164
aI914985165
aI24866179
aI24866182
aI24866185
aI275976625
aI275976627
aI275976629
aI275976639
aI275976640
aI275976656
aI275976659
aI275976666
aI275976677
aI275976678
aI915018238
aI915018239
aI914985547
aI914985548
aI328012379
aI328012380
aI328012381
aI914985594
aI914985595
aI914985600
aI914985601
aI914985609
aI976098009
aI976098010
aI976098011
aI976098012
aI976098013
aI1123554469
aI915018994
aI976098815
aI976098816
aI976098817
aI976098818
aI848893467
aI848893468
aI848893469
aI976098877
aI171513638
aI275984008
aI171513682
aI275984034
aI275984045
aI275984058
aI171514105
aI171514121
aI171514132
aI171514159
aI914987313
aI914987314
aI171514168
aI275984106
aI171514268
aI171514275
aI171514311
aI171514351
aI171514360
aI171514377
aI171514409
aI171514412
aI171514413
aI171514414
aI171514422
aI171514437
aI171514473
aI171514494
aI171514504
aI171514522
aI171514548
aI171514552
aI171514553
aI171514556
aI171514573
aI171514578
aI171514586
aI171514590
aI171514599
aI171514631
aI171514640
aI171514676
aI1039866912
aI171515071
aI171515072
aI171515077
aI171515087
aI171515160
aI171515166
aI171515167
aI171515168
aI171515174
aI171515190
aI976199205
aI976199206
aI275095097
aI915021386
aI915021425
aI842866291
aI275095168
aI275095170
aI275095171
aI275095173
aI922394295
aI922394296
aI922394297
aI922394298
aI915021503
aI171515584
aI171515625
aI171515628
aI171515632
aI171515640
aI171515645
aI171515672
aI171515680
aI171515697
aI171515699
aI171515718
aI171515733
aI171515776
aI335454828
aI335454829
aI335454835
aI335454837
aI335454838
aI335454840
aI335454841
aI335454843
aI335454844
aI335454880
aI914825913
aI914825914
aI171516718
aI335455035
aI171516739
aI335455046
aI171516743
aI171516744
aI171516745
aI335455051
aI335455052
aI171516751
aI171516753
aI171516757
aI171516758
aI171516760
aI171516761
aI171516763
aI171516786
aI171516792
aI171516803
aI171516811
aI171516812
aI171516875
aI171516880
aI171516888
aI171516889
aI171516907
aI171516958
aI171516967
aI171516979
aI171516981
aI171516984
aI171516990
aI171516997
aI171517000
aI171517005
aI171517016
aI171517036
aI171517052
aI171517058
aI171517060
aI171517063
aI171517068
aI171517071
aI171517076
aI171517082
aI171517113
aI171517118
aI171517121
aI335455430
aI171517160
aI275981554
aI171517182
aI275981573
aI171517203
aI171517206
aI171517219
aI171517220
aI171517239
aI171517253
aI171517258
aI335455567
aI171517316
aI171517319
aI171517327
aI171517330
aI171517335
aI171517336
aI171517337
aI171517345
aI171517348
aI171517350
aI171517352
aI171517353
aI171517361
aI171517362
aI171517364
aI171517366
aI171517369
aI171517371
aI171517373
aI171517374
aI171517378
aI171517381
aI171517384
aI171517385
aI171517389
aI171517395
aI171517396
aI171517399
aI171517400
aI171517408
aI171517409
aI171517420
aI171517421
aI171517423
aI171517427
aI171517428
aI171517431
aI171517433
aI171517438
aI171517441
aI171517451
aI171517456
aI171517457
aI171517458
aI171517461
aI171517462
aI243541574
aI243541581
aI171517641
aI171517643
aI171517645
aI171517646
aI171517647
aI171517648
aI243541720
aI243541721
aI243541724
aI275982155
aI914827175
aI914827176
aI243541934
aI918464450
aI918464451
aI243541961
aI918464461
aI243541967
aI243541974
aI243541981
aI243541983
aI243541985
aI243541986
aI243542006
aI243542010
aI243542012
aI243542013
aI171518064
aI171518065
aI171518066
aI171518069
aI215675251
aI215656650
aI215656655
aI275982603
aI275982733
aI914991680
aI914991681
aI915024594
aI171519107
aI171519110
aI171519111
aI1061989625
aI1061989626
aI1061989627
aI1061989628
aI1061989629
aI1061989630
aI1061989631
aI1061989632
aI1061989633
aI1061989634
aI1061989635
aI1061989636
aI1061989637
aI1061989638
aI1061989639
aI1061989640
aI1061989641
aI1061989642
aI1062907147
aI1061989644
aI1061989645
aI1062907150
aI1061989647
aI1061989648
aI1061989646
aI916270536
aI916270537
aI916270538
aI916270539
aI275983913
aI914992999
aI914993000
aI914993006
aI914993038
aI914993223
aI914993224
aI171517334
aI976143943
aI914829985
aI916273067
aI915016011
aI1062385669
aI851472971
aI1063304273
aI1063304277
aI1063304280
aI889535584
aI889535587
aI976142323
aI976142324
aI976142326
aI915030388
aI338870766
aI335463576
aI335463598
aI335463602
aI335463791
aI335463798
aI335463805
aI335463806
aI335463808
aI335463810
aI335463900
aI335463949
aI335463992
aI335463996
aI335464004
aI335464045
aI335464046
aI335464049
aI335464050
aI335464360
aI335464361
aI216614989
aI216614990
aI216614993
aI243541948
aI216615349
aI216615350
aI216615355
aI335465193
aI916273018
aI335454819
aI335454836
aI335454839
aI335454842
aI335454872
aI171516520
aI243542018
aI335455019
aI335455020
aI335455047
aI171517644
aI979752626
aI171516890
aI171516891
aI171514866
aI171517057
aI171517059
aI171517064
aI171514869
aI171517119
aI275981580
aI338857927
aI24862765
aI24862782
aI171517302
aI171517390
aI916251945
aI916251946
aI916251990
aI915040275
aI915040276
aI243541722
aI24865245
aI889535585
aI889535586
aI24865418
aI24865583
aI24865591
aI24865605
aI215673769
aI215673770
aI215673775
aI275982165
aI24865824
aI275976716
aI24866080
aI24866211
aI24866214
aI24866224
aI243541918
aI24866230
aI24866232
aI915041722
aI915041723
aI171514583
aI243541944
aI915041883
aI915041884
aI243542005
aI171516784
aI215675252
aI851472966
aI851472967
aI851472968
aI851472969
aI851472970
aI851472972
aI851472973
aI171518075
aI171516817
aI921334843
aI921334844
aI921334846
aI921334847
aI921334848
aI921334849
aI921334850
aI921334851
aI921334853
aI914985602
aI979565325
aI950304580
aI915045961
aI915045962
aI950304581
aI954204088
aI954204089
aI976142325
aI915024554
asI28231
(lp8
I915014425
aI915014426
aI976097045
aI976097046
aI976097047
aI976097048
aI976097049
aI918458214
aI918458215
aI914985796
aI914985797
aI171524941
aI171524951
aI171525232
aI243540689
aI243540692
aI243540693
aI243540698
aI335455578
aI335455583
aI916269740
aI275986947
aI275986949
aI880294705
aI868818915
aI171524831
aI171524948
aI219464684
aI219464685
aI171525212
aI171525216
aI171525581
aI196987499
aI196987500
aI338874661
aI338874662
aI338874669
aI917755909
aI917756031
aI917756032
aI917756033
aI335455575
aI914976212
aI917755910
aI275114144
asI28232
(lp9
I872677419
aI915024568
aI215646306
aI215646329
aI215646335
aI215646338
aI215646348
aI215646567
aI215646571
aI215646619
aI215646662
aI215646663
aI215646684
aI215646697
aI215646756
aI275507977
aI215646789
aI851488483
aI842040662
aI842040663
aI918459965
aI915015338
aI915015348
aI919930578
aI919930579
aI275983399
aI275983408
aI275983424
aI915016507
aI915016508
aI915016576
aI915016583
aI338870796
aI918458216
aI918458218
aI171535767
aI215652439
aI915018387
aI275983815
aI215651435
aI950506828
aI848893470
aI918459969
aI918459970
aI328013411
aI215652217
aI171525100
aI171525101
aI171525126
aI215652437
aI915019888
aI851488480
aI851488481
aI916270848
aI171525217
aI338844096
aI916276343
aI918461183
aI918461184
aI171525251
aI171525272
aI979704822
aI171525315
aI171525318
aI171536298
aI917773879
aI917773880
aI915021383
aI915021384
aI915021398
aI917381189
aI243540235
aI243540243
aI243540245
aI243540553
aI243540586
aI243540605
aI243540606
aI243540615
aI243540616
aI243540618
aI243540619
aI243540620
aI243540626
aI243540627
aI243540628
aI243540660
aI243540669
aI243540670
aI243540673
aI918466679
aI24880069
aI24880074
aI24880077
aI24880078
aI24880082
aI24880138
aI24880142
aI24880143
aI24880159
aI24880160
aI24880185
aI24880199
aI24880206
aI24880207
aI24880220
aI24880221
aI24880234
aI24880238
aI24880242
aI24880264
aI171535779
aI24880273
aI24880275
aI24880314
aI24880354
aI24880355
aI24880358
aI24880366
aI335455491
aI24880477
aI24880505
aI24880515
aI24880700
aI24880741
aI915023473
aI915023490
aI335455911
aI914958114
aI24881062
aI24881086
aI24881209
aI24881215
aI24881232
aI24881271
aI24881276
aI24881287
aI24881301
aI171525834
aI171525850
aI24881470
aI24881474
aI24881597
aI915024567
aI915024605
aI915024606
aI275983184
aI275983185
aI275983397
aI275983400
aI276016184
aI275983431
aI275983432
aI275983468
aI275983714
aI275983732
aI275983737
aI851488482
aI851488484
aI219852673
aI219852674
aI916271170
aI918466692
aI918466693
aI335458591
aI335458650
aI335458701
aI335458702
aI335458744
aI1046000386
aI335458911
aI335458912
aI335459030
aI171525055
aI1046000385
aI196987016
aI915027141
aI915027142
aI915027143
aI922334499
aI922334500
aI922334501
aI922334502
aI851850712
aI851850713
aI850872571
aI171526396
aI850872579
aI335459962
aI335459999
aI335460000
aI950089886
aI950089887
aI950089888
aI914995456
aI914995596
aI914995672
aI914995673
aI338835969
aI338836101
aI338836102
aI880294699
aI915029005
aI915029007
aI915029008
aI915027144
aI338836680
aI918469857
aI24881575
aI914996999
aI914997000
aI916274964
aI916274998
aI914964517
aI914997364
aI914997416
aI335462615
aI335462616
aI916275678
aI338870797
aI338870798
aI171525052
aI171525053
aI171525056
aI171525058
aI171525080
aI171525083
aI171525084
aI171525086
aI171525089
aI171525092
aI171525102
aI171525105
aI171525106
aI171525107
aI171525110
aI171525116
aI171525117
aI171525122
aI171525124
aI171525125
aI171525127
aI171525138
aI171525139
aI171525145
aI171525146
aI171525147
aI171525148
aI171525150
aI171525152
aI171525153
aI171525156
aI171525159
aI171525207
aI171525211
aI171525220
aI171525224
aI171525225
aI916276340
aI916276341
aI916276342
aI916276344
aI916276345
aI916276346
aI916276347
aI916276348
aI916276349
aI171525259
aI171525263
aI171525271
aI171525276
aI171525299
aI171525305
aI171525307
aI171525311
aI171525312
aI171525320
aI171525328
aI171525344
aI171525356
aI196986141
aI196986175
aI915031487
aI915031494
aI196986390
aI196986409
aI171525736
aI171525748
aI171525768
aI275983404
aI171525814
aI171525829
aI171525833
aI171525836
aI171525837
aI171525838
aI171525839
aI171525844
aI171525846
aI171525857
aI171525861
aI171525862
aI171525866
aI916276980
aI916276981
aI916276982
aI916276983
aI916276984
aI171525903
aI171525910
aI171525917
aI171525918
aI171525928
aI842024745
aI171525930
aI916277037
aI916277038
aI171525944
aI338872161
aI338872162
aI171525998
aI171526082
aI171526107
aI171526114
aI171526126
aI171526130
aI171526131
aI171526132
aI171526136
aI171526138
aI171526155
aI171526246
aI171526264
aI171526280
aI171526295
aI196987034
aI171526301
aI196987051
aI171525176
aI171526340
aI171526348
aI171526378
aI171526392
aI850872572
aI850872573
aI850872574
aI850872575
aI850872576
aI850872577
aI850872578
aI171526408
aI171526414
aI915032498
aI915032499
aI171526674
aI915032613
aI915032614
aI338872875
aI338872876
aI915032623
aI171527387
aI171527419
aI171527485
aI916273058
aI243540560
aI171526315
aI216616792
aI216617022
aI19452146
aI916273287
aI171529202
aI171529440
aI171529441
aI171529448
aI805721325
aI805721326
aI805721327
aI171529466
aI171529483
aI171529484
aI171529485
aI171529530
aI171529532
aI171529537
aI171529547
aI171529569
aI171529589
aI171529617
aI171529663
aI171529669
aI171529674
aI171529683
aI171529695
aI914995455
aI171529748
aI171529816
aI171529817
aI171529825
aI171529876
aI864802611
aI864802612
aI979687310
aI979687311
aI171530282
aI171530290
aI917709837
aI917709838
aI171530447
aI275110107
aI915039276
aI915039277
aI842024746
aI915039283
aI806148411
aI806148412
aI24880241
aI221993646
aI219470541
aI918458217
aI918458219
aI335455486
aI335458940
aI914997405
aI915038323
aI915038324
aI915039335
aI915039336
aI915039337
aI915039338
aI915039349
aI915039563
aI915039564
aI915023461
aI915023462
aI915040101
aI915040102
aI24880786
aI24880788
aI915029006
aI915029009
aI915029010
aI915023569
aI275507552
aI979692030
aI979692031
aI171535246
aI171535250
aI171535266
aI171535391
aI918469856
aI171535776
aI171535793
aI171535835
aI171535838
aI915041760
aI915041761
aI918464448
aI918464449
aI979704823
aI915042427
aI915042565
aI275214608
aI275214616
aI914958462
aI851486861
aI275215657
aI979695107
aI979695108
aI979695109
aI979695110
aI171529169
aI916322101
aI880277675
aI880277676
aI880277678
aI880277679
aI880277680
aI915045148
aI915045149
aI915045212
aI915045213
aI915045315
aI171529522
aI915046277
aI915046278
aI872677265
aI872677266
aI215646104
aI915046395
aI915046396
asI28234
(lp10
I952107866
aI171509952
aI171509964
aI171509980
aI171510000
aI171510003
aI171510020
aI171510044
aI171510054
aI171510059
aI171510060
aI171510063
aI171510080
aI171510089
aI171510091
aI171510120
aI171510126
aI171510128
aI171510169
aI171510184
aI171510379
aI171510381
aI171510385
aI171510396
aI171510404
aI171510410
aI171510413
aI171510423
aI171510426
aI171510431
aI171510434
aI171510436
aI171510439
aI171510442
aI171510444
aI171510459
aI171510466
aI171510467
aI171510537
aI171510555
aI171510561
aI171510567
aI171510590
aI171510633
aI338857241
aI851479990
aI851479991
aI851479992
aI851479993
aI851479994
aI851480000
aI171519235
aI851480937
aI915030657
aI851480940
aI1111486326
aI851480936
aI851480938
aI851480941
aI851480942
aI851480943
aI851480944
aI338858852
aI338858921
aI221975699
aI221975700
aI221975713
aI221975716
aI221975724
aI221975785
aI917941825
aI917941826
aI851482036
aI851482037
aI979703376
aI979703377
aI999960164
aI915019373
aI915019375
aI915019376
aI915019377
aI915019453
aI915019493
aI915019962
aI999960270
aI999960273
aI999960274
aI999960275
aI999960280
aI916276324
aI275160154
aI171515021
aI171515022
aI1111486317
aI171515031
aI848895324
aI848895325
aI915031274
aI171515275
aI171520446
aI24866737
aI171515482
aI171515751
aI171515752
aI171515772
aI171515775
aI171515778
aI171515786
aI171515791
aI171515797
aI171515820
aI171515828
aI171515830
aI171515841
aI171515845
aI171515846
aI171515852
aI171515855
aI171515867
aI171515918
aI171515922
aI171515925
aI171515928
aI171515934
aI922329134
aI922329135
aI922329136
aI922329137
aI922329138
aI922329139
aI922329140
aI922329147
aI922329148
aI171516209
aI171516243
aI171516255
aI171516262
aI171516266
aI171516269
aI171516276
aI915022465
aI915022466
aI915022480
aI1121985498
aI1121985499
aI243541143
aI243541145
aI243541149
aI243541170
aI243541171
aI243541173
aI243541175
aI243541183
aI243541187
aI243541188
aI335455627
aI243541443
aI243541523
aI243541528
aI243541532
aI243541536
aI243541560
aI243541561
aI243541563
aI914892357
aI917710462
aI917710463
aI917710464
aI917710467
aI243541906
aI918464456
aI243542365
aI915024636
aI915024637
aI915024638
aI915024639
aI171518957
aI171518979
aI171518980
aI171518987
aI171518997
aI171519003
aI171519005
aI171519024
aI171519060
aI171519176
aI171519178
aI171519186
aI171519191
aI171519215
aI171519249
aI171519253
aI171519259
aI171519264
aI171519270
aI171519276
aI171519294
aI171519325
aI999960165
aI999960166
aI999960167
aI999960168
aI999960169
aI999960170
aI999960171
aI999960172
aI999960173
aI999960267
aI999960269
aI999960271
aI999960272
aI999960277
aI999960278
aI999960279
aI999960281
aI999960282
aI999960283
aI999960284
aI999960285
aI999960286
aI999960287
aI171520229
aI171520242
aI171520277
aI171520298
aI171520329
aI171520334
aI171520386
aI171520388
aI171520426
aI171520432
aI171520457
aI171520493
aI171520510
aI171520513
aI171520523
aI171520524
aI171520531
aI171520532
aI171520534
aI171510036
aI275163835
aI916273096
aI915028073
aI915028074
aI889534629
aI889534630
aI915037453
aI915028718
aI243541833
aI889535583
aI916274995
aI916274996
aI171515876
aI171515878
aI915046225
aI275496976
aI916275298
aI916275299
aI916275300
aI916275301
aI1103128713
aI916275447
aI916275448
aI916275634
aI916275635
aI916275794
aI916275795
aI915030658
aI338870968
aI338870969
aI275497688
aI335463408
aI335463412
aI335463413
aI335463453
aI335463455
aI335463469
aI335463490
aI335463492
aI335463494
aI335463496
aI335463498
aI335463501
aI335463503
aI335463507
aI335463510
aI335463513
aI916276322
aI916276323
aI335463568
aI915031252
aI915031332
aI915031333
aI915031335
aI915031387
aI1103128745
aI1045448551
aI1045448552
aI1045448553
aI1045448554
aI1045448555
aI1045448556
aI1045448557
aI1045448559
aI1045448560
aI1045448561
aI1045448562
aI335464312
aI1045448569
aI275990483
aI275990556
aI335464594
aI335464604
aI1060292796
aI196299402
aI196299413
aI335465181
aI335465213
aI915033567
aI915033568
aI915033570
aI915033672
aI915033681
aI999960276
aI915033707
aI704729116
aI704729117
aI704729118
aI914903632
aI914903633
aI851479995
aI915033569
aI196301652
aI915044606
aI915036693
aI915036694
aI243541146
aI1111486325
aI915037454
aI1111486327
aI915037661
aI915037662
aI917382448
aI1045448558
aI949543206
aI335455626
aI24863171
aI1103127583
aI1103127584
aI1103127598
aI1103127599
aI1103127600
aI1103127601
aI1103127602
aI1103127603
aI1103127604
aI1103127605
aI1103127606
aI1103127607
aI1103127608
aI1103127609
aI1103127610
aI1103127611
aI1103127612
aI1103127613
aI1103127614
aI1103127615
aI1103127616
aI1103127617
aI1103127618
aI1103127619
aI1103127620
aI1103127621
aI1103127622
aI1103127623
aI1103127624
aI1103127625
aI1103127630
aI1103127631
aI1103127632
aI1103127633
aI1103127634
aI243541525
aI171520340
aI914892358
aI917710465
aI917710466
aI851480939
aI1103128716
aI1103128717
aI915040409
aI1103128732
aI1103128755
aI1103128756
aI1103128757
aI1103128764
aI1103128765
aI1103128766
aI1103128771
aI1103128772
aI1103128773
aI1103128774
aI1103128775
aI1103128776
aI1103128779
aI1103128780
aI1103128781
aI915040534
aI915040536
aI915040537
aI915040538
aI915040539
aI215673360
aI215673368
aI215673389
aI889535582
aI948234915
aI24865708
aI917383004
aI24865973
aI24866024
aI24866056
aI24866063
aI24866067
aI24866094
aI918464438
aI918464457
aI918464463
aI1111486318
aI1111486319
aI1111486320
aI1111486321
aI1111486322
aI1111486323
aI1111486324
aI24866966
aI24866971
aI24866974
aI24866988
aI1103128743
aI1103128744
aI1103128746
aI1103128747
aI1103128748
aI1103128749
aI1103128750
aI1103128751
aI1103128752
aI1103128753
aI1103128754
aI1103128767
aI1103128768
aI1103128769
aI1103128770
aI1103128777
aI1103128778
aI979563749
aI915040487
aI915040535
aI171519020
aI915044607
aI915044629
aI915044790
aI915044791
aI915044917
aI915044918
aI915044919
aI915044920
aI1045494393
aI1045494394
aI275497633
aI275512603
aI275512608
aI275512837
aI275512847
aI275512848
aI275512852
aI275512857
aI275512858
aI275512861
aI275512869
aI275512870
aI275512871
aI275512880
aI275512885
aI275512886
aI275512899
aI275512918
aI275512924
aI275512928
aI275512930
aI275512945
aI275512994
aI275513002
aI915033671
aI275513101
aI275513102
aI275513130
aI275513134
aI275513143
aI915033680
asI28235
(lp11
I275502496
aI976093944
aI976093945
aI1044693146
aI1045496742
aI1045496743
aI1045496744
aI1045496745
aI1045496755
aI1045496756
aI1045496757
aI1045496758
aI1045496759
aI1045496760
aI1045496761
aI1045496762
aI1045496763
aI1060078585
aI1060078586
aI842925165
aI842925166
aI979698927
aI918455860
aI1060276697
aI1060080112
aI1060080113
aI1060080114
aI1060080115
aI1060080116
aI1069058677
aI1069058678
aI1069058679
aI1069058680
aI1069058681
aI1069058682
aI1069058683
aI1060080275
aI1060080276
aI1060080277
aI1060080278
aI1060080280
aI1060080281
aI976096273
aI976096274
aI976096275
aI1060277308
aI1060277313
aI1060277314
aI1060277315
aI1060277316
aI1060277317
aI1060277318
aI1060277319
aI215649352
aI215649360
aI215649380
aI215649410
aI171521410
aI338857885
aI338857893
aI215650335
aI215650352
aI215650357
aI851775851
aI851480950
aI1121194395
aI1121194401
aI1121194402
aI1121194403
aI1121194404
aI1121194405
aI1121194406
aI338858678
aI338858681
aI338858863
aI1121194872
aI1098100286
aI1060078583
aI1060078584
aI950311307
aI950311304
aI950311305
aI950311306
aI335454416
aI335454421
aI335454425
aI335455354
aI335455363
aI335455498
aI335455521
aI335455525
aI335455536
aI243541298
aI335455544
aI335455554
aI243541316
aI335455566
aI243541329
aI243541330
aI243541335
aI243541337
aI243541352
aI171521608
aI948255657
aI24867159
aI24867165
aI335456426
aI24867188
aI335456442
aI335456444
aI243542369
aI1060089389
aI1098100284
aI1098100285
aI1060089630
aI1045486923
aI1045486939
aI335458622
aI171521109
aI171521121
aI171521124
aI171521127
aI171521128
aI171521135
aI171521137
aI171521139
aI171521142
aI171521144
aI171521233
aI171521234
aI171521235
aI171521236
aI171521240
aI171521243
aI171521244
aI171521245
aI171521246
aI171521248
aI171521249
aI171521250
aI171521251
aI171521271
aI171521277
aI171521278
aI171521282
aI171521288
aI171521302
aI171521320
aI171521322
aI171521323
aI171521324
aI171521383
aI171521385
aI171521388
aI171521395
aI171521396
aI171521397
aI171521400
aI171521403
aI171521404
aI171521405
aI171521407
aI171521411
aI171521412
aI171521414
aI171521415
aI171521417
aI171521422
aI171521423
aI171521424
aI171521426
aI171521428
aI171521433
aI171521435
aI171521610
aI171521615
aI171521616
aI171521618
aI171521619
aI171521621
aI171521623
aI171521625
aI171521629
aI171521631
aI171521632
aI171521633
aI171521634
aI171521635
aI171521636
aI171521637
aI171521638
aI171521641
aI171521642
aI171521643
aI171521649
aI171521652
aI171521654
aI171521655
aI171521659
aI171521661
aI171521662
aI171521663
aI171521667
aI171521668
aI171521671
aI171521675
aI171521677
aI171521685
aI171521690
aI171521694
aI171521704
aI171521895
aI171521897
aI171521899
aI171521914
aI171521926
aI171522068
aI171522069
aI171522070
aI171522071
aI171522076
aI171522080
aI171522082
aI171522084
aI171522089
aI171522090
aI171522092
aI171522093
aI171522097
aI171522098
aI171522101
aI171522102
aI171522110
aI171522121
aI171522122
aI171522125
aI171522133
aI171522138
aI171522140
aI171522149
aI171522150
aI171522151
aI171522152
aI171522158
aI171522159
aI171522162
aI171522166
aI171522168
aI171522169
aI171522176
aI171522183
aI171522185
aI171522186
aI171522191
aI171522193
aI171522194
aI171522196
aI171522203
aI171522210
aI171522219
aI171522223
aI171522226
aI171522230
aI171522231
aI171522234
aI171522237
aI171522265
aI171522269
aI171522270
aI171522276
aI171522277
aI171522279
aI171522287
aI171522290
aI171522295
aI171522303
aI335460619
aI171522337
aI1044691297
aI1044691298
aI335456433
aI949533570
aI335456450
aI1120746887
aI1120746902
aI171521281
aI1120747127
aI1120747136
aI1120747137
aI1120747138
aI1120747155
aI1060080279
aI1060080282
aI1060080283
aI1060080284
aI1120747598
aI1044693145
aI1044693147
aI1044693148
aI1044693149
aI1044693150
aI1044693151
aI1120747703
aI1120747864
aI338871020
aI219464603
aI1044104367
aI1044694211
aI914900164
aI914900165
aI914900166
aI914900167
aI171521604
aI171521605
aI1113015960
aI1113015961
aI1113015962
aI1044989658
aI1044989660
aI171521678
aI171521679
aI171521697
aI171521701
aI171527037
aI171527043
aI171527044
aI171527060
aI171527063
aI171527097
aI171521912
aI275500536
aI275501344
aI275501370
aI275505972
aI171522206
aI171522208
aI275502244
aI275502249
aI275502346
aI275506058
aI275502472
aI275502482
aI275502492
aI275502507
aI275502508
aI806180456
aI806180457
aI275503071
aI275503072
aI275503099
aI275503110
aI1045485945
aI1045485946
aI1045485947
aI1045485948
aI1045485949
aI1045485955
aI1045485956
aI1045485957
aI1045485959
aI1045485960
aI1045485961
aI1045485962
aI1045485963
aI1045485964
aI1045485965
aI1045485967
aI1045485968
aI1045485969
aI1045485971
aI1045485975
aI1045485976
aI1045485977
aI1045485978
aI1045485979
aI1045485980
aI1045485981
aI1045485982
aI1045485983
aI1045485984
aI1045485985
aI1045485986
aI1045485987
aI1045485988
aI1045485989
aI1045485990
aI1045485991
aI1045485992
aI1045485993
aI1045485994
aI1045485995
aI1045485997
aI1045485999
aI1045486000
aI1045486005
aI1045486006
aI1045486007
aI1045486008
aI1045486009
aI1045486010
aI1045486011
aI1045486012
aI1045486013
aI335455375
aI1045486915
aI1045486916
aI1045486917
aI1045486918
aI1045486920
aI1045486922
aI1045486924
aI1045486931
aI1045486932
aI1045486933
aI1045486934
aI1045486935
aI1045486936
aI1045486937
aI1045486938
aI1045486940
aI1045486942
aI1045486943
aI1045486944
aI1045486945
aI1045486946
aI1045486947
aI1045486948
aI1045486949
aI1045486950
aI1045486951
aI1045486952
aI1045486953
aI1045486954
aI1045486955
aI1045486956
aI1045486957
aI1045486958
aI1045486959
aI1045486960
aI1045486961
aI1045486962
aI1045486963
aI1045486964
aI1045486965
aI1045486966
aI1045486967
aI1045486968
aI1045486969
aI1045486972
aI1045486973
aI1045486974
aI1045486975
aI1045486976
aI1045486977
aI1045486978
aI335455493
aI335455556
aI1045491099
aI335455557
aI243541353
aI275505962
aI275505987
aI275505988
aI275506003
aI1045488477
aI1045488478
aI1045488479
aI1045488480
aI1045488481
aI1045488482
aI1045488483
aI1045488484
aI1045488485
aI1045488486
aI1045488487
aI1045488488
aI1045488489
aI1045488490
aI1045488491
aI1045488492
aI1045488493
aI1045488494
aI1045488495
aI1045488496
aI1045488497
aI1045488498
aI1045488499
aI1045488500
aI1045488501
aI1045488502
aI1045488503
aI1045488504
aI1045488505
aI1045488506
aI1045488507
aI1045488508
aI1045488509
aI1045488510
aI1045488511
aI1045488512
aI1045488513
aI1045488514
aI1045488515
aI1045488516
aI1045488517
aI1045488518
aI1045488520
aI1045488521
aI1045488522
aI1045488523
aI1045488526
aI1045488528
aI1045488529
aI1045488530
aI1045488531
aI1045488532
aI1045488533
aI1045488534
aI1045488535
aI1045488536
aI1045488537
aI1045488538
aI1045488539
aI1045488540
aI1045488541
aI1045488542
aI1045488543
aI1045488544
aI1045488545
aI1045488546
aI1045488547
aI1045488548
aI1045488549
aI1045488566
aI1045488568
aI1045488569
aI1045488581
aI1045488582
aI1045488583
aI1045488584
aI948255658
aI843736726
aI843736727
aI851601075
aI851775852
aI915040491
aI915040505
aI1045491064
aI1045491065
aI1045491066
aI1045491067
aI1045491068
aI1045491069
aI1045491070
aI1045491071
aI1045491072
aI1045491073
aI1045491074
aI1045491075
aI1045491076
aI1045491077
aI1045491078
aI1045491079
aI1045491080
aI1045491082
aI1045491083
aI1045491085
aI1045491100
aI1045491101
aI24867122
aI24867123
aI24867125
aI24867127
aI24867128
aI24867129
aI24867136
aI24867150
aI24867153
aI24867155
aI24867156
aI24867162
aI24867166
aI1120746897
aI24867185
aI24867187
aI24867190
aI24867193
aI1120746901
aI24867213
aI1045492535
aI1045492536
aI335456435
aI335456440
aI1045486919
aI1045486921
aI915040492
aI915024121
aI915024122
aI948237801
aI948237802
aI1045486925
aI1045486926
aI1045486927
aI1045486928
aI1045486929
aI1045486930
aI1120747139
aI171521680
aI1120747158
aI1120747159
aI915045194
aI915045195
aI915045196
aI915045197
aI1060274009
aI1060274010
aI1069055948
aI1069055949
aI1069055950
aI1069055951
aI1069055952
asI28236
(lp12
I979698929
aI215647870
aI215647883
aI215647953
aI215647962
aI215647972
aI215647986
aI215648035
aI215648360
aI915016097
aI915016098
aI215649325
aI916275873
aI916275875
aI915019183
aI915020171
aI915020172
aI979698930
aI243540345
aI243540402
aI243540409
aI243540415
aI243540423
aI243540494
aI243541358
aI243541360
aI243541361
aI24880534
aI24880591
aI24880597
aI24880604
aI24880605
aI24880636
aI24880639
aI915023591
aI915023592
aI915023617
aI918464454
aI915026558
aI915026559
aI171520982
aI171520983
aI171521010
aI171521012
aI171521013
aI171521015
aI171521020
aI171521021
aI171521024
aI216610567
aI216610569
aI216610571
aI171521850
aI171521938
aI171521940
aI171521945
aI171521946
aI171521947
aI171521949
aI171521952
aI171521954
aI171521959
aI171521962
aI916273075
aI171521974
aI171521976
aI171521977
aI171521978
aI171521979
aI171521980
aI171521981
aI171521988
aI171521990
aI171521993
aI171522017
aI171522023
aI171522025
aI916273396
aI335460638
aI915028631
aI915028632
aI915028634
aI171526745
aI915030680
aI915030681
aI915030682
aI915030683
aI916275869
aI916275870
aI916275871
aI916275872
aI916275874
aI916275876
aI916275877
aI916275878
aI916275879
aI916275880
aI872170844
aI215649337
aI171526532
aI171526553
aI171526554
aI171526560
aI171526562
aI171526566
aI171526568
aI171526572
aI171526632
aI216610568
aI243540404
aI216610570
aI171526742
aI171526744
aI171526821
aI171526841
aI171526847
aI171526861
aI171526879
aI171526887
aI171526944
aI171526958
aI171526962
aI171526969
aI171526977
aI171526984
aI171526999
aI171527003
aI171527015
aI171527073
aI171527092
aI171527130
aI171527148
aI171527150
aI171527152
aI171527157
aI171527163
aI171527164
aI171527168
aI171527172
aI171527201
aI171527238
aI171527243
aI171527246
aI171527271
aI171527275
aI171527282
aI171527312
aI171527523
aI275500489
aI275500501
aI171522000
aI915034098
aI806180458
aI915028633
aI915034099
aI275506435
aI275506856
aI275506907
aI275506920
aI275506972
aI275507050
aI275507420
aI915023590
aI915023593
aI915042224
aI915042225
aI915024003
aI915024004
aI805731790
aI805731791
aI805731792
asI24664
(lp13
I914991842
aI917767677
aI917767678
aI917767679
aI919930584
aI919930587
aI171529887
aI915010122
aI171529923
aI917768589
aI171531534
aI914975961
aI914975970
aI914975965
aI338857689
aI338857691
aI338857790
aI338857835
aI918458221
aI917933972
aI171530246
aI335463138
aI215651213
aI215651220
aI215651223
aI215651256
aI171530405
aI950506829
aI916270675
aI196351628
aI196351629
aI917379320
aI24883442
aI914987577
aI914987578
aI914987579
aI914987580
aI914987581
aI914987614
aI914987615
aI914987618
aI914987630
aI914987654
aI918461175
aI918461178
aI918461179
aI917773813
aI1045503976
aI1045503977
aI24881312
aI914989317
aI243540579
aI243540580
aI243540684
aI243540715
aI243540730
aI243540755
aI243540772
aI243540778
aI243540779
aI243540781
aI243540783
aI24883345
aI243540846
aI917382686
aI24880762
aI24880769
aI24880773
aI24880777
aI24880802
aI24880803
aI24880810
aI24880811
aI24880825
aI24883487
aI24880833
aI24880881
aI24880884
aI24880908
aI24880919
aI24880924
aI917382954
aI24880954
aI24880959
aI24880960
aI24880966
aI24880967
aI24880994
aI24880995
aI24881002
aI24881014
aI24881015
aI24881128
aI916269111
aI916269112
aI24881308
aI24881309
aI24881314
aI24881315
aI24881317
aI24881319
aI24881323
aI914991324
aI24881375
aI24881379
aI917383399
aI917383400
aI24881395
aI24881397
aI914991417
aI914991461
aI914991463
aI914991465
aI914991466
aI24881519
aI24881520
aI24881522
aI24881523
aI24881532
aI24881542
aI24881548
aI24881556
aI24881563
aI24881576
aI24881578
aI24881582
aI914991536
aI24881589
aI24881598
aI24881600
aI24881604
aI24881607
aI24881610
aI914991682
aI915024506
aI914991841
aI976137025
aI976137026
aI976137027
aI276016215
aI276016219
aI276016220
aI276016221
aI243543188
aI243543189
aI914992655
aI914992656
aI914992657
aI915015601
aI914993044
aI914993045
aI914991533
aI171531598
aI914993114
aI914993115
aI276017120
aI24883174
aI171531605
aI915026606
aI915026607
aI915037532
aI915037540
aI918466671
aI918466676
aI918466681
aI918466689
aI918466690
aI918466691
aI24883370
aI24883380
aI24883430
aI24883441
aI24883444
aI24883476
aI24883486
aI24883494
aI24883495
aI24883497
aI24883500
aI915026292
aI915026293
aI915026294
aI915026295
aI171531670
aI24881377
aI915026602
aI915026603
aI915026604
aI915026605
aI335459292
aI171531773
aI171531786
aI914994410
aI914994411
aI914994565
aI915005001
aI914994755
aI914994756
aI914994757
aI914994758
aI914994759
aI915027531
aI915027734
aI914995063
aI914995064
aI916273020
aI914995235
aI916273489
aI916273490
aI916273792
aI275987232
aI916274040
aI275987405
aI338869332
aI275987548
aI338869342
aI918469861
aI918469862
aI918469870
aI275987747
aI275987749
aI275987750
aI275987756
aI275987760
aI275987788
aI275987796
aI275987807
aI275987808
aI275987809
aI275987812
aI275987816
aI275987817
aI275987818
aI275987819
aI275987820
aI275987833
aI275987835
aI275987849
aI275987864
aI275987878
aI275987890
aI275987896
aI275987899
aI335461836
aI275987920
aI335461843
aI335461844
aI335461845
aI335461846
aI335461847
aI335461848
aI335461852
aI275988025
aI335461955
aI275988041
aI275988043
aI335461990
aI335461991
aI275988099
aI216612798
aI335462354
aI275988435
aI335462612
aI915030419
aI335462857
aI335462864
aI171524591
aI171524592
aI171524620
aI916276302
aI171530607
aI171525715
aI916276829
aI171525726
aI914998953
aI914998954
aI915031959
aI915031960
aI338872322
aI338872323
aI171526182
aI171526212
aI915024489
aI171530644
aI171527405
aI171527416
aI171527678
aI171527758
aI171527769
aI171527789
aI243540584
aI171527872
aI171527908
aI915024534
aI171527921
aI171527931
aI171527940
aI216616822
aI216616823
aI216616824
aI216616825
aI216616826
aI171528078
aI171528080
aI171528118
aI171528120
aI171528196
aI216616966
aI216617007
aI171528251
aI171528252
aI216617023
aI171528259
aI171528265
aI171528279
aI171528295
aI171528296
aI171528302
aI171528344
aI171528353
aI914995234
aI171528406
aI171528429
aI171528445
aI171528482
aI171528484
aI171528504
aI171528538
aI171528595
aI243540719
aI171528604
aI171528605
aI171528616
aI243540726
aI171528671
aI171528679
aI171528680
aI171528682
aI914994420
aI915001851
aI915001852
aI915001864
aI915001876
aI915001877
aI915001878
aI915001890
aI171528747
aI915001902
aI171528752
aI915001907
aI171528795
aI171528823
aI915001981
aI918508165
aI918508167
aI918508168
aI918508169
aI918508171
aI918508172
aI171528866
aI171528871
aI171528872
aI171528878
aI915002034
aI171528883
aI171528902
aI171528908
aI171528915
aI171528925
aI171528948
aI171528949
aI171528978
aI243540782
aI171528982
aI171528995
aI171528996
aI171529085
aI171529096
aI171529097
aI171529121
aI171529128
aI171529164
aI171529165
aI171529196
aI171529258
aI171529263
aI171529265
aI171529266
aI171529271
aI171529321
aI171529322
aI171529338
aI171529342
aI171529357
aI171529366
aI171529367
aI171529373
aI171529393
aI171529395
aI915035407
aI915035408
aI171529898
aI171529905
aI171529926
aI171529932
aI171529939
aI171529940
aI171529941
aI171529942
aI171529943
aI171529944
aI171529957
aI171529958
aI171529959
aI171529962
aI171529967
aI171529970
aI171529972
aI171529974
aI171529988
aI171529993
aI171529995
aI171530065
aI171530084
aI171530087
aI171530101
aI979687305
aI979687306
aI979687307
aI979687308
aI979687309
aI979687312
aI979687313
aI171530134
aI171530148
aI171530151
aI171530157
aI171530158
aI171530181
aI171530200
aI171530239
aI171530243
aI171530334
aI819091563
aI171530355
aI171530359
aI171530371
aI171530390
aI171530391
aI171530394
aI171530398
aI171530399
aI950294742
aI171530537
aI171530549
aI171530585
aI171530589
aI915036606
aI915036607
aI915036715
aI915036716
aI171531103
aI916249450
aI916249451
aI916249452
aI916249453
aI916249454
aI916249455
aI171531128
aI916249466
aI916249467
aI916249468
aI916249469
aI171531164
aI171531166
aI171531204
aI171531244
aI171531466
aI171531467
aI171531487
aI171531488
aI171531491
aI171531492
aI915037447
aI171531528
aI171531533
aI171531536
aI171531543
aI171531544
aI171531545
aI171531546
aI171531547
aI915037468
aI171531549
aI171531552
aI915037475
aI171531572
aI171531575
aI171531576
aI171531581
aI215644725
aI171531593
aI171531599
aI915037531
aI171531613
aI171531663
aI171531664
aI171531772
aI915004925
aI171531788
aI915004999
aI915005002
aI24881017
aI915005195
aI915005196
aI915005259
aI915005260
aI915038453
aI915038454
aI915038548
aI915038674
aI915038675
aI915038676
aI338857833
aI915038970
aI915038971
aI916268545
aI916268601
aI275987369
aI171528530
aI916274175
aI24880841
aI24880857
aI24880875
aI979692034
aI979692035
aI979692038
aI24880973
aI171528718
aI915018262
aI915018263
aI24881005
aI914975898
aI914975899
aI914975907
aI24881016
aI914975962
aI914975963
aI914975964
aI914975966
aI914975967
aI914975968
aI914975969
aI914975971
aI914975972
aI914975973
aI275987670
aI914976063
aI914976075
aI918547791
aI918469863
aI918469871
aI275508761
aI914976335
aI914976421
aI275987758
aI916276336
aI918508175
aI275987843
aI275509094
aI275509096
aI275987778
aI275987745
aI275987810
aI275987811
aI275987813
aI275987814
aI275987815
aI916320547
aI916269110
aI275987863
aI275987874
aI915010123
aI275987897
aI275509865
aI275509867
aI24881310
aI171529044
aI275988008
aI914991325
aI275988035
aI915044033
aI915044034
aI915044069
aI171528850
aI915011653
aI915011654
aI914991462
aI914991464
aI215644306
aI24881524
aI24881543
aI215644493
aI215644516
aI914979212
aI915044848
aI915044849
aI805730804
aI24881581
aI915044909
aI215644766
aI914979442
aI914979443
aI215644854
aI215644855
aI914979634
aI914979635
aI215644983
aI914979648
aI215644997
aI215645001
aI215646021
aI171529383
aI215646038
aI335462279
aI215645490
aI915045754
aI215645577
aI215645583
aI914991683
aI338829695
aI915037469
aI915024490
aI915024501
aI915024523
asI27865
(lp14
I916269766
aI914981063
aI914981064
aI915008251
aI921332483
aI921332484
aI24865559
aI915014346
aI915014347
aI916269868
aI848561142
aI915014676
aI915014677
aI915014692
aI915014693
aI915014697
aI915014725
aI915014738
aI915014801
aI915014805
aI915014806
aI915014810
aI915014811
aI915014814
aI916254705
aI919930581
aI919930582
aI919930583
aI919930588
aI950299636
aI171509698
aI171509744
aI171509771
aI171509784
aI914986685
aI216598741
aI216598959
aI216599005
aI216599360
aI952109892
aI216599379
aI914983827
aI914983859
aI914983860
aI914983868
aI171510846
aI171510928
aI171510943
aI914992328
aI171511032
aI171511058
aI171511063
aI914984302
aI171511227
aI171511239
aI171511251
aI171511259
aI171511261
aI171511326
aI338857520
aI171511398
aI171511408
aI171511413
aI171511472
aI171511476
aI171511494
aI171511535
aI171511543
aI171511585
aI171511607
aI171511617
aI171511618
aI918458212
aI918458213
aI171511657
aI171511666
aI918458227
aI171511685
aI171511704
aI171511707
aI171511714
aI171511741
aI24866126
aI171511801
aI171511811
aI171511844
aI171511865
aI171511878
aI171511892
aI171511895
aI171511903
aI914992488
aI171511934
aI171511960
aI171512011
aI171512036
aI216600819
aI171512057
aI171512061
aI171512062
aI216600831
aI216600842
aI171512076
aI171512077
aI171512079
aI171512084
aI171512098
aI171512131
aI275986224
aI914976144
aI171512190
aI216600960
aI216600992
aI171512289
aI171512302
aI171512342
aI171512346
aI171512348
aI171512360
aI171512390
aI171512393
aI216601194
aI216601200
aI171512441
aI171512450
aI216601222
aI171512495
aI171512510
aI171512530
aI171512536
aI216601325
aI216601332
aI171512573
aI171512584
aI171512597
aI171512607
aI171512636
aI171512640
aI915003543
aI216601501
aI216601566
aI216601601
aI338859053
aI171514035
aI338859060
aI338859065
aI338859066
aI216601659
aI171514063
aI171513151
aI171513169
aI216601943
aI171513176
aI216601953
aI171513197
aI171513237
aI171513253
aI916270663
aI171513261
aI171513265
aI916270665
aI916270666
aI171513281
aI171513292
aI171513296
aI171513322
aI171513353
aI171513354
aI171513366
aI918459952
aI918459953
aI918459954
aI918459955
aI918459963
aI918459966
aI918459967
aI914986686
aI848631615
aI848631616
aI848631617
aI171513723
aI171513727
aI171513747
aI171513792
aI916270753
aI171513838
aI171513911
aI171513913
aI917379423
aI171513919
aI914987073
aI914987076
aI914987077
aI914987078
aI914987079
aI914987080
aI914987081
aI914987084
aI914987085
aI171513946
aI171513953
aI171513958
aI171513959
aI171513963
aI171513966
aI171513969
aI171513975
aI171513980
aI914987141
aI914987142
aI171514011
aI171514023
aI171514029
aI171514038
aI171514045
aI917379445
aI171514051
aI917379447
aI171514060
aI171514073
aI171514077
aI171514088
aI848632042
aI848632043
aI171514125
aI917379414
aI917379421
aI917379428
aI917379443
aI917379444
aI171514229
aI917379446
aI917379448
aI917379449
aI917379450
aI171514259
aI875076012
aI875076013
aI875076014
aI875076015
aI917379525
aI917379592
aI917379634
aI171514423
aI171514434
aI917379667
aI171514528
aI917379798
aI917379799
aI917379800
aI917379822
aI918461176
aI918461177
aI917379836
aI914987890
aI914987926
aI914987927
aI274373592
aI979704821
aI914988025
aI914988026
aI917380091
aI917380092
aI917380121
aI917380122
aI917380245
aI917380246
aI917380248
aI917380249
aI917380250
aI917380251
aI918265395
aI914988607
aI914988629
aI914988638
aI914988639
aI914988642
aI914988696
aI918265729
aI979672968
aI979672969
aI979672972
aI979672973
aI915011037
aI916271089
aI1045503962
aI1045503964
aI1045503965
aI1045503966
aI1045503967
aI1045503968
aI1045503969
aI1045503970
aI1045503971
aI1045503972
aI1045503973
aI1045503974
aI1045503975
aI916254717
aI976199820
aI918461180
aI171516492
aI171516496
aI171516497
aI171516503
aI171516505
aI171516510
aI171516511
aI171516517
aI171516519
aI171516532
aI171516538
aI171516574
aI171516578
aI918466673
aI914993300
aI243540859
aI243540869
aI243540872
aI243540909
aI243540911
aI243540923
aI243540937
aI309601483
aI916268947
aI918464436
aI918464440
aI918464441
aI918464458
aI918464459
aI918464466
aI917380089
aI916269060
aI243542056
aI243542057
aI243542060
aI243542131
aI243542137
aI243542139
aI243542150
aI243542160
aI243542238
aI243542256
aI243542289
aI243542319
aI243542320
aI243542328
aI243542333
aI243542337
aI243542348
aI916269522
aI916269523
aI914992085
aI914992086
aI914992119
aI914992120
aI914992329
aI914992465
aI914992487
aI914992491
aI914992519
aI914992520
aI916270662
aI916270664
aI878521954
aI878521956
aI979688778
aI979688780
aI916271086
aI916271087
aI979688787
aI916271786
aI918466665
aI918466666
aI918466667
aI918466668
aI918466669
aI918466670
aI918466672
aI918466674
aI918466675
aI918466680
aI918466684
aI918466686
aI918466687
aI918466688
aI918466695
aI275984724
aI914993845
aI914993846
aI335462924
aI916272211
aI916272233
aI916272234
aI916272235
aI916272236
aI916272365
aI914994414
aI914994415
aI914994416
aI335459570
aI335459572
aI335459579
aI335459583
aI335459585
aI922334498
aI918265394
aI275985725
aI275985731
aI275985739
aI335459713
aI335459714
aI275985834
aI335459790
aI976139727
aI976139729
aI976139730
aI916272671
aI275986175
aI275986188
aI275986222
aI875149295
aI875149296
aI335459718
aI335461467
aI914996357
aI914996358
aI914996431
aI918469858
aI918469859
aI918469864
aI918265728
aI914994413
aI915008019
aI916272366
aI916272367
aI335459569
aI914996669
aI914996670
aI914996758
aI171523613
aI914996766
aI914996767
aI171523617
aI914996776
aI914996777
aI914996778
aI914996799
aI914996800
aI914996807
aI914996817
aI1045503963
aI842907466
aI842907467
aI914997455
aI914997465
aI914997468
aI335462813
aI335462815
aI335462824
aI335462826
aI335462828
aI335462831
aI335462892
aI335462898
aI335462901
aI335462904
aI335462908
aI335462976
aI335463024
aI335463031
aI335463039
aI914997892
aI914997893
aI335463073
aI335463082
aI335463098
aI914997979
aI914997980
aI976139728
aI914998103
aI917380090
aI275989505
aI335463612
aI335463075
aI275990023
aI275990025
aI335464176
aI338872349
aI917380247
aI275986255
aI216616251
aI216616300
aI216616301
aI216616302
aI216616349
aI216616350
aI216616351
aI216616422
aI216616423
aI216616427
aI216616428
aI171516531
aI216616772
aI216616780
aI216616781
aI915001482
aI915001483
aI915001484
aI915001485
aI915001486
aI915001487
aI915001860
aI915001861
aI915001881
aI918508166
aI917754534
aI216600937
aI917754671
aI171511288
aI919845027
aI805721321
aI805721322
aI805721323
aI805721324
aI919512407
aI243540881
aI243540883
aI918469866
aI243540910
aI243540916
aI915003287
aI915003288
aI915003289
aI915003290
aI915003301
aI915003326
aI24860620
aI24860641
aI24860659
aI24860661
aI917756027
aI915003544
aI915003545
aI24863778
aI915003601
aI915003602
aI24863779
aI915003620
aI915003621
aI878521955
aI878521957
aI979753656
aI979753657
aI916249355
aI916249356
aI916249357
aI1127865129
aI1127865139
aI979688779
aI979688781
aI979688782
aI979688785
aI979688786
aI274783645
aI24862334
aI24862337
aI24862382
aI915005244
aI915005245
aI1045494413
aI24864062
aI171511803
aI171511841
aI171511861
aI886006124
aI243542158
aI24863832
aI24864010
aI24864021
aI24864146
aI24864191
aI24864196
aI24864203
aI24864215
aI24864243
aI24864259
aI24864266
aI24864539
aI24864542
aI24864550
aI24864570
aI24864587
aI24864616
aI24864625
aI24864632
aI24864640
aI24864658
aI24864674
aI24864683
aI216600904
aI24864694
aI24864732
aI24864816
aI24864901
aI24864926
aI24864929
aI24864959
aI24864960
aI24864993
aI24864994
aI24865004
aI24865005
aI24865007
aI24865011
aI24865013
aI24865016
aI24865032
aI335461468
aI915008043
aI915008047
aI915008048
aI24865424
aI24865434
aI24865435
aI24865436
aI24865440
aI24865442
aI24865451
aI24865463
aI24865474
aI24865475
aI24865476
aI24865551
aI24864567
aI243542239
aI915008394
aI915008438
aI915008439
aI915008453
aI915008454
aI915008468
aI917761011
aI917761012
aI171512331
aI915008704
aI915008780
aI24866110
aI916268942
aI916268946
aI918469865
aI914976143
aI914976202
aI914976204
aI918464437
aI918464439
aI914996432
aI918464464
aI918464467
aI171512449
aI1121939360
aI1121939361
aI916254672
aI916254742
aI914976203
aI243542074
aI216601328
aI914977238
aI914977239
aI243542130
aI914977470
aI243542138
aI914996759
aI243542241
aI914978161
aI914978162
aI243542257
aI915011003
aI24865015
aI915011038
aI915011039
aI915011071
aI915011093
aI915011104
aI915011145
aI243542285
aI914978486
aI914978487
aI243542321
aI243542344
aI243542345
aI216601600
aI915011656
aI915011657
aI914978940
aI338859067
aI915011966
aI915011967
aI914979200
aI914979201
aI1045494405
aI1045494406
aI1045494407
aI1045494408
aI1045494409
aI1045494410
aI1045494411
aI1045494412
aI1045494414
aI1045494415
aI1045494416
aI1045494417
aI1045494418
aI914979636
aI914979637
aI915013443
aI915012889
aI915012890
aI915012942
aI915012943
aI805721320
aI919928253
aI919928254
aI914988928
aI24864944
aI915013444
aI915011144
aI915013447
aI915013448
aI914980770
asI34780
(lp15
I976093249
aI976093250
aI976093874
aI976093875
aI976093876
aI976093877
aI976093878
aI976093879
aI976093880
aI976093881
aI976093946
aI976093947
aI952107868
aI1045496769
aI1045496770
aI1045496771
aI1045496772
aI275449017
aI275449018
aI275449028
aI275449039
aI275449042
aI979698926
aI275449074
aI275449080
aI275449128
aI275449140
aI976094675
aI976094676
aI976094677
aI976094678
aI976094679
aI976094680
aI948242348
aI948242349
aI948242353
aI1045498300
aI1045498301
aI1045498306
aI275450604
aI275450605
aI976096272
aI976096276
aI976096277
aI1060277303
aI1060277304
aI1060277305
aI1060277306
aI1060277307
aI1060277309
aI1060277311
aI1060277312
aI851479987
aI851479988
aI851479997
aI851479998
aI851479999
aI976096712
aI976096713
aI1060278087
aI1060278088
aI1060278089
aI1060278090
aI1060278091
aI1060278092
aI1060278093
aI1060278094
aI215650299
aI215650303
aI215650337
aI215650338
aI171519348
aI171519367
aI338858345
aI338858348
aI851480951
aI851480952
aI851480953
aI851480954
aI1121194394
aI1121194399
aI338858434
aI338858439
aI338858442
aI338858446
aI338858447
aI338858449
aI338858462
aI338858466
aI338858502
aI338858523
aI338858525
aI338858528
aI338858530
aI171519433
aI171519435
aI338858791
aI338858800
aI338858813
aI338858814
aI338858815
aI338858817
aI338858830
aI338858832
aI338858845
aI338858848
aI338858849
aI338858850
aI338858854
aI338858855
aI338858856
aI338858857
aI338858858
aI338858859
aI338858860
aI338858861
aI338858862
aI338858894
aI338858897
aI338858901
aI338858912
aI338858914
aI338858916
aI338858919
aI338858926
aI338858929
aI338858930
aI338858966
aI338858967
aI338859068
aI338859069
aI338859081
aI338859082
aI338859096
aI171519503
aI1099994212
aI1099994213
aI1099994214
aI171519505
aI1119392944
aI1119392945
aI1119392946
aI1044104110
aI171519689
aI171519693
aI948246761
aI171519702
aI171519706
aI171519707
aI171519723
aI215652741
aI215652751
aI215652752
aI215652756
aI215652758
aI215652761
aI215652762
aI215652765
aI171519731
aI171519732
aI215652826
aI171519747
aI171519748
aI171519752
aI171519764
aI820452160
aI948247535
aI917773888
aI171519962
aI171519963
aI171519968
aI171519983
aI24866803
aI914890701
aI914890702
aI24866815
aI24866822
aI922329141
aI922329143
aI922329144
aI922329145
aI922329146
aI24866833
aI335454354
aI335454355
aI335454357
aI335454358
aI335454359
aI335454360
aI335454364
aI335454365
aI335454366
aI335454367
aI335454368
aI335454369
aI335454379
aI335454380
aI335454386
aI335454392
aI335454396
aI335454397
aI335454401
aI335454411
aI335454427
aI335454428
aI335454429
aI1120746899
aI1035412422
aI243541111
aI243541112
aI243541113
aI243541199
aI243541226
aI243541238
aI243541244
aI243541247
aI243541299
aI243541301
aI335455618
aI948247536
aI335456279
aI335456285
aI335456308
aI335456316
aI335456324
aI335456325
aI335456326
aI335456327
aI335456328
aI335456461
aI335456468
aI335456472
aI335456491
aI275990228
aI335456558
aI338872033
aI1122085749
aI1122085751
aI171519029
aI171519037
aI171519039
aI171519040
aI171519041
aI171519042
aI171519044
aI171519045
aI171519046
aI171519049
aI171519055
aI171519056
aI171519094
aI171519096
aI171519099
aI171519343
aI171519345
aI171519354
aI171519355
aI171519357
aI171519358
aI171519359
aI171519361
aI171519363
aI171519364
aI171519365
aI171519366
aI171519369
aI171519370
aI171519371
aI171519372
aI171519373
aI171519376
aI171519377
aI171519379
aI171519380
aI171519382
aI171519383
aI171519385
aI171519392
aI171519395
aI171519396
aI171519399
aI171519402
aI171519414
aI171519415
aI171519417
aI171519421
aI171519424
aI171519428
aI171519429
aI171519430
aI171519431
aI171519439
aI171519441
aI171519450
aI171519454
aI171519456
aI171519461
aI171519462
aI171519463
aI171519464
aI171519465
aI171519466
aI171519469
aI171519477
aI171519478
aI171519480
aI171519482
aI171519485
aI171519489
aI171519492
aI171519494
aI171519498
aI171519499
aI171519507
aI171519509
aI171519510
aI171519512
aI171519514
aI171519518
aI171519519
aI171519520
aI1060089390
aI1060089391
aI171519686
aI171519692
aI171519694
aI171519697
aI171519698
aI171519699
aI171519700
aI171519704
aI171519715
aI171519717
aI171519719
aI171519721
aI171519724
aI171519726
aI171519729
aI171519730
aI171519736
aI171519739
aI171519744
aI171519757
aI171519797
aI171519798
aI171519818
aI171519821
aI171519887
aI171519891
aI171519895
aI171519906
aI171519909
aI171519910
aI171519911
aI171519912
aI171519915
aI171519917
aI171519923
aI171519925
aI171519927
aI171519929
aI171519931
aI171519934
aI171519940
aI171519951
aI171519953
aI171519955
aI171519956
aI171519961
aI171519965
aI171519969
aI171519971
aI171519973
aI171519975
aI171519978
aI171519980
aI171519981
aI171519984
aI171519985
aI171519986
aI171519992
aI171519995
aI171520032
aI171520038
aI171520040
aI171520046
aI171520047
aI171520051
aI171520063
aI171520064
aI171520065
aI171520069
aI171520070
aI1060286991
aI1060286992
aI949531428
aI275499154
aI171521097
aI171521105
aI216609967
aI171521308
aI171521311
aI171521326
aI171521333
aI171521348
aI171521352
aI171521360
aI171521361
aI171521373
aI171521376
aI171521429
aI171521470
aI171521471
aI171521472
aI171521474
aI171521484
aI171521485
aI171521488
aI171521493
aI171521495
aI171521499
aI171521502
aI171521504
aI171521514
aI171521519
aI171521521
aI171521522
aI171521527
aI171521532
aI171521545
aI171521558
aI171521561
aI171521571
aI171521574
aI171521578
aI171521582
aI171521585
aI171521586
aI171521588
aI171521591
aI171521593
aI171521594
aI171521598
aI171521600
aI171521601
aI171521711
aI171521713
aI171521716
aI171521717
aI171521718
aI171521722
aI171521724
aI171521729
aI171521730
aI171521736
aI171521739
aI171521740
aI171521743
aI171521746
aI171521749
aI171521750
aI171521751
aI171521752
aI171521756
aI171521761
aI171521765
aI171521767
aI171521775
aI171521780
aI171521784
aI1025062732
aI1025062864
aI171522244
aI171522245
aI171521107
aI1098103337
aI1098103338
aI1060289177
aI171522938
aI171522939
aI171522940
aI171522941
aI171522942
aI171522960
aI171522961
aI171522962
aI171522969
aI171522972
aI171522978
aI171522982
aI171522983
aI171522984
aI171522985
aI171522986
aI171522995
aI171523008
aI171523009
aI171523012
aI171523017
aI171523031
aI171523032
aI171523039
aI171523046
aI171523047
aI171523048
aI171523052
aI171523053
aI171523061
aI171523064
aI171523066
aI171523067
aI171523071
aI171523075
aI171523082
aI171523090
aI171523100
aI171523101
aI338869421
aI338869423
aI878263527
aI275499567
aI275499569
aI1120746900
aI1120746903
aI848576017
aI848576018
aI1120747126
aI1120747128
aI1120747130
aI1120747131
aI338869909
aI338869910
aI338869911
aI171521314
aI338870086
aI338870087
aI338870088
aI1120747352
aI949534563
aI338870147
aI171521347
aI171521355
aI1120747596
aI1120747599
aI1120747600
aI922329142
aI916275552
aI916275553
aI171521450
aI171521496
aI171521524
aI171521528
aI1044104259
aI275498081
aI275498098
aI335454431
aI1103128734
aI1060292116
aI1120978503
aI275498624
aI275498634
aI1044989659
aI275499150
aI275499166
aI275499169
aI275499188
aI275499194
aI275499218
aI275499227
aI275499243
aI275499255
aI275499267
aI1060277310
aI275499467
aI275499484
aI275499539
aI275499566
aI275499568
aI275499576
aI275499598
aI275499609
aI275499610
aI949537612
aI914902163
aI1060293921
aI1060293922
aI1060293923
aI1060293925
aI1060293926
aI1060293927
aI1060293928
aI275991897
aI275991899
aI275991929
aI338841049
aI1045483018
aI1045483019
aI1045483020
aI1045483021
aI1045483022
aI1045483023
aI1045483024
aI1045483025
aI1045483026
aI1045483027
aI1045483028
aI1045483029
aI1045483030
aI1045483031
aI1045483032
aI1045483033
aI1045483034
aI1045483036
aI1045483037
aI1045483038
aI1045483039
aI1045483040
aI1045483041
aI1045483042
aI1045483043
aI1045483044
aI1045483045
aI1045483046
aI1045483047
aI1045483048
aI1045483049
aI1045483050
aI1045483051
aI1045483052
aI1045483053
aI1045483054
aI1045483055
aI1045483056
aI1045483057
aI1045483058
aI1045483059
aI1045483060
aI1045483061
aI1045483062
aI1045483063
aI1045483064
aI1045483065
aI1045483066
aI1045483067
aI1045483068
aI1045483069
aI1045483070
aI1045483071
aI1045483072
aI1045483073
aI1045483074
aI1045483075
aI1045483076
aI1045483098
aI1045483099
aI1045483100
aI1045483101
aI1045483102
aI1045483145
aI1045483146
aI1045483147
aI1045483148
aI1045483149
aI1045483150
aI1045483151
aI1045483152
aI1045483154
aI1045483155
aI1060294343
aI1060294344
aI1060294345
aI1060294346
aI1060294348
aI1060294349
aI1060294350
aI1060294351
aI1060294352
aI1060294353
aI1060294354
aI1060294355
aI1060294356
aI1060294357
aI1060294358
aI1060294359
aI1060294360
aI1060293924
aI1060294362
aI1060294363
aI1060294364
aI1060294366
aI1060294367
aI1060294368
aI1060294370
aI1060294371
aI1060294373
aI275500967
aI275500968
aI275500981
aI275500985
aI1060360145
aI275501034
aI275501035
aI275501038
aI275501040
aI275501043
aI275501048
aI275501059
aI275501063
aI275501070
aI275501077
aI275501078
aI275501080
aI275501081
aI275501082
aI1060360339
aI1060360340
aI1060360341
aI1060360342
aI275501233
aI275501234
aI914903336
aI914903337
aI275501394
aI1060295005
aI1060295006
aI1060295007
aI1060295008
aI1060295009
aI1060295010
aI1060295011
aI1060295012
aI1060295013
aI1060295014
aI1060295015
aI1060295016
aI1060295093
aI219468395
aI215652755
aI275502241
aI1045483035
aI275502247
aI1035031742
aI1035031743
aI1035031744
aI1035031745
aI1035031746
aI1035031747
aI1035031748
aI1035031749
aI1035031750
aI1035031751
aI1035031754
aI1035031755
aI1035031756
aI1035031856
aI1035031857
aI1035031858
aI1035031859
aI1035031860
aI1035031861
aI1035031862
aI1035031863
aI1035031864
aI1035031865
aI1035031867
aI1035031950
aI1035031951
aI1060294347
aI1060294361
aI1060294365
aI806148406
aI806148407
aI1060294369
aI1045485950
aI1045485951
aI1045485952
aI1045485953
aI1045485954
aI1060362809
aI1060362810
aI1060362811
aI1060362812
aI1060362813
aI1060362814
aI1060362815
aI1060362816
aI1060362817
aI1060362818
aI1060362819
aI1060362820
aI1060362822
aI1060362823
aI1060362824
aI1060362825
aI1060362826
aI1060362827
aI806148405
aI1060363310
aI1060363311
aI1060363312
aI1045486970
aI1045486971
aI275504831
aI1060360143
aI1060360144
aI275504866
aI275504877
aI275504923
aI1060289175
aI1060289176
aI275501062
aI275501085
aI275498076
aI1045488550
aI1045488551
aI1045488552
aI1045488553
aI1045488554
aI1045488555
aI1045488556
aI1045488557
aI1045488558
aI1045488559
aI1045488560
aI1045488561
aI1103127585
aI1103127586
aI1103127587
aI1103127588
aI1103127590
aI1103127591
aI1103127592
aI1103127593
aI1103127594
aI1103127595
aI1103127596
aI1103127597
aI1103127626
aI1103127627
aI1103127628
aI1103127629
aI171522981
aI1074275956
aI1074275957
aI171523021
aI222029777
aI222029778
aI1103128714
aI1103128715
aI1103128720
aI1103128721
aI1103128722
aI1103128723
aI1103128724
aI1103128725
aI1103128726
aI1103128727
aI1103128728
aI1103128731
aI1103128733
aI1103128735
aI1103128738
aI1103128739
aI1103128740
aI1103128741
aI1103128758
aI1103128760
aI1103128761
aI1103128763
aI915040581
aI171521092
aI1121194400
aI915040725
aI915040726
aI1073801760
aI1073801762
aI1035412421
aI948234913
aI24870071
aI338858522
aI878263526
aI1045491084
aI1045491086
aI1045491088
aI1045491089
aI1045491090
aI1045491092
aI1045491094
aI1045491095
aI1045491096
aI1045491097
aI1045491098
aI24866743
aI24866745
aI24866750
aI24866753
aI24866756
aI24866766
aI24866767
aI24866783
aI24866837
aI24866852
aI24866859
aI24866896
aI24866900
aI24866905
aI335456281
aI335456286
aI335456297
aI1120746883
aI24867132
aI24867157
aI24867171
aI24867173
aI24867174
aI335456335
aI1045492537
aI1045492539
aI1045492540
aI1045492541
aI1045492542
aI1045492543
aI1045492544
aI1103128718
aI1103128719
aI338858812
aI1103128729
aI1103128730
aI1103128736
aI1103128737
aI1103128742
aI1103128759
aI1103128762
aI1060294372
aI24866779
aI24870044
aI24870053
aI24870057
aI24870062
aI1035031752
aI24870068
aI24870069
aI24870070
aI1035031753
aI24870073
aI24870076
aI24870077
aI24866828
aI275502349
aI24866844
aI1060274006
aI1060274007
aI1060274008
aI1035031866
aI915046369
aI915046370
aI915046382
asI34665
(lp16
sI34666
(lp17
I914992018
aI917379879
aI917379880
aI917380038
aI917380039
aI917380040
aI243540599
aI979707344
aI979707345
aI979707346
aI914991908
aI914991909
aI917980476
aI917980477
aI171525884
aI171526025
aI171526048
aI171526053
aI171526054
aI171525645
asI34810
(lp18
I914981017
aI914981018
aI914981019
aI914981020
aI914981021
aI914981022
aI914981023
aI914981024
aI215673568
aI851472977
aI811041851
aI811041852
aI919513996
aI914822714
aI914822715
aI171524389
aI979688783
aI171524457
aI952109890
aI338857527
aI338857532
aI338870889
aI338870890
aI338857611
aI918458220
aI918458223
aI918458224
aI918458225
aI919513995
aI171524767
aI171524691
aI171524775
aI171524776
aI171512410
aI24866250
aI24866252
aI914987127
aI914987132
aI275989318
aI171512872
aI338859052
aI171512888
aI171512909
aI171512936
aI171512982
aI171512985
aI171513026
aI171513049
aI914822370
aI914822371
aI171513069
aI171513089
aI171524737
aI275977572
aI979688777
aI918459956
aI918459957
aI918459958
aI918459960
aI918459961
aI918459962
aI918459968
aI275978579
aI914998277
aI910366764
aI914987126
aI914987187
aI914987188
aI275978572
aI275978573
aI275978574
aI275978575
aI275978576
aI275978577
aI275978578
aI275978584
aI275978585
aI275978588
aI917379426
aI917379427
aI919837306
aI274373616
aI979704817
aI979704818
aI979704819
aI979704820
aI917380278
aI917380279
aI917380280
aI917380281
aI917380282
aI221977802
aI221977803
aI221977804
aI221977808
aI917380506
aI914988524
aI914988525
aI914988641
aI914988693
aI914988698
aI914988699
aI915009546
aI914989320
aI914989321
aI24879412
aI24879419
aI24879487
aI24879493
aI24879513
aI24879532
aI24879540
aI24879643
aI24879648
aI24879654
aI24879658
aI24879670
aI24879671
aI24879728
aI24879757
aI24879780
aI24879787
aI916271226
aI243540712
aI916271228
aI916271229
aI171516662
aI171516709
aI243540820
aI171516778
aI24880019
aI24880040
aI24880046
aI24880052
aI335455500
aI919512404
aI335455676
aI914990594
aI171517495
aI914990650
aI171517523
aI171517532
aI171517548
aI914990707
aI914990708
aI914990709
aI914990710
aI914990711
aI914990713
aI914990717
aI171517586
aI171517588
aI171517589
aI171517599
aI171517606
aI171517608
aI243541678
aI243541679
aI243541680
aI171517617
aI243541682
aI243541683
aI171517622
aI171517623
aI171517624
aI243541696
aI243541698
aI243541699
aI171517649
aI171517651
aI171517658
aI171517662
aI171517663
aI171517710
aI914990864
aI914990865
aI914990866
aI914990867
aI914990868
aI914990869
aI171517726
aI171517729
aI914990886
aI914990887
aI914990888
aI171517742
aI171517743
aI171517744
aI171517746
aI171517750
aI171517752
aI171517755
aI171517756
aI171517757
aI171517758
aI171517764
aI171517765
aI171517768
aI171517773
aI171517774
aI171517775
aI171517780
aI171517781
aI171517782
aI171517783
aI171517784
aI171517786
aI171517788
aI171517799
aI171517801
aI171517803
aI171517804
aI171517805
aI171517808
aI171517809
aI171517810
aI171517812
aI171517813
aI171517816
aI171517818
aI171517820
aI171517821
aI171517823
aI171517824
aI215656330
aI215656333
aI914990990
aI171517852
aI215656349
aI171517878
aI171517879
aI918464442
aI918464443
aI918464445
aI918464447
aI918464452
aI171517895
aI171517900
aI171517904
aI918464465
aI171517907
aI171517909
aI171517913
aI171517918
aI171517923
aI171517925
aI171517926
aI171517930
aI171517933
aI171517936
aI171517937
aI171517938
aI171517941
aI171517945
aI171517947
aI171517950
aI171517951
aI171517954
aI171517957
aI171517961
aI171517962
aI171517967
aI171517969
aI171517970
aI916269075
aI171517972
aI171517973
aI171517976
aI171517977
aI171517978
aI171517980
aI171517982
aI171517984
aI914991137
aI171518003
aI171518005
aI171518006
aI914991162
aI171518025
aI171518026
aI171518029
aI171518030
aI171518031
aI171518033
aI171518034
aI171518037
aI171518038
aI171518040
aI171518042
aI171518043
aI171518044
aI171518045
aI171518046
aI171518050
aI171518052
aI171518053
aI171518057
aI171518058
aI171518061
aI243542197
aI243542198
aI243542199
aI243542200
aI243542219
aI243542226
aI171518193
aI919930585
aI171518240
aI171518244
aI171518248
aI171518252
aI171518253
aI275982943
aI171518565
aI171518568
aI171518570
aI171518574
aI171518576
aI171518577
aI171518578
aI171518590
aI171518600
aI171518601
aI171518602
aI171518603
aI171518604
aI171518605
aI171518606
aI171518607
aI171518608
aI171518609
aI171518610
aI171518612
aI171518613
aI171518614
aI171518617
aI171518621
aI171518622
aI171518623
aI171518624
aI171518627
aI171518688
aI171518690
aI916269796
aI171518693
aI171518695
aI171518699
aI171518701
aI171518703
aI171518704
aI171518706
aI171518714
aI171518715
aI171518728
aI171518729
aI171518737
aI171518738
aI171518740
aI171518753
aI171518754
aI276016172
aI851472975
aI851472976
aI979688776
aI918466677
aI918466678
aI918466682
aI918466683
aI918466685
aI918466694
aI1084043537
aI916271705
aI916271803
aI916271805
aI335459232
aI335459234
aI335459252
aI335459254
aI914994158
aI914994239
aI914994240
aI914994241
aI914994242
aI914994243
aI914994244
aI914994408
aI914994409
aI914994417
aI275985673
aI922334503
aI335459828
aI914994760
aI914994761
aI1061992078
aI1061992079
aI1061992080
aI1061992081
aI914994834
aI914994835
aI914994849
aI914994852
aI914994853
aI275986314
aI275986609
aI275986691
aI275986873
aI880294701
aI880294702
aI24866272
aI275987574
aI335461703
aI335461714
aI914996701
aI914996798
aI171523807
aI171523866
aI171523905
aI171523921
aI171523961
aI171523967
aI171523975
aI171523993
aI171524006
aI171524025
aI171524032
aI171524043
aI171524076
aI171524077
aI171524085
aI171524099
aI171524121
aI171524145
aI171524156
aI171524250
aI171524259
aI171524323
aI171524417
aI171524436
aI171524498
aI171524540
aI171524546
aI171524589
aI171524623
aI335462937
aI335462939
aI1062388264
aI171524678
aI171524706
aI338870888
aI171524731
aI338870913
aI171524739
aI171524743
aI171524744
aI171524745
aI171524748
aI171524750
aI171524751
aI171524752
aI171524753
aI171524771
aI171524777
aI171524780
aI914965170
aI171524810
aI171524834
aI275989253
aI275989254
aI171524891
aI171524994
aI171525000
aI171525001
aI171525008
aI171525010
aI171525011
aI171525018
aI914998174
aI171525024
aI171525034
aI171525035
aI171525037
aI171525038
aI171525043
aI171525044
aI171525045
aI171525046
aI914998206
aI914998207
aI914998263
aI914998278
aI914998322
aI914998328
aI171525403
aI171517508
aI171525461
aI171525470
aI171525486
aI171525498
aI171525503
aI24866357
aI914998986
aI914998987
aI914998994
aI914998997
aI914999016
aI275990548
aI196987002
aI196987053
aI196987054
aI196987055
aI196987067
aI196987081
aI196987528
aI914993950
aI171517566
aI216616013
aI848809130
aI335465680
aI915000721
aI915000722
aI216616426
aI918540232
aI916271704
aI914995207
aI914995208
aI915001479
aI915001480
aI275986468
aI919490829
aI919490830
aI915001790
aI915001791
aI918508174
aI171517625
aI806245206
aI243540817
aI851465632
aI851465633
aI24880070
aI914984609
aI275986784
aI915003557
aI915003558
aI915003567
aI915003568
aI915003607
aI915003664
aI915003679
aI915003698
aI806148413
aI806148414
aI915004017
aI915004040
aI915004041
aI915004252
aI915004264
aI171512905
aI918458226
aI979688775
aI979688784
aI215673570
aI914988655
aI886006125
aI248177597
aI914990889
aI1004561648
aI1004561649
aI1004561650
aI1004561651
aI1004561652
aI1004561653
aI914990651
aI914990660
aI914990706
aI914990712
aI914990714
aI914990715
aI914990716
aI914990718
aI914990719
aI171517573
aI171517576
aI171517577
aI171517618
aI243541689
aI24864862
aI24864872
aI243541708
aI914990593
aI171517661
aI171517815
aI171517708
aI171517759
aI171517766
aI171517767
aI915008517
aI171517791
aI915008702
aI915008703
aI171517817
aI915008729
aI915008738
aI24866150
aI171517841
aI857664958
aI24866245
aI24866246
aI914991009
aI24866248
aI24866251
aI24866254
aI24866268
aI24866271
aI24866275
aI24866278
aI24866280
aI24866292
aI24866293
aI24866303
aI24866309
aI24866314
aI24866347
aI24866352
aI24866355
aI24866356
aI24866360
aI24866362
aI24866371
aI24866376
aI24866377
aI918464444
aI24866411
aI24866412
aI24866413
aI24866415
aI24866417
aI24866419
aI918464446
aI918464453
aI171517898
aI918464460
aI171517905
aI171517906
aI24866546
aI24866551
aI24866553
aI24866600
aI24866601
aI24866613
aI24866620
aI24866623
aI24866624
aI24866626
aI24866628
aI24866629
aI918508173
aI171517935
aI915009450
aI915009451
aI914990989
aI915009499
aI915009500
aI915009605
aI916269074
aI916269084
aI171517981
aI171517992
aI914991161
aI171517887
aI171518024
aI171517888
aI171517890
aI851472974
aI171517894
aI219476710
aI914996702
aI171517903
aI914977832
aI914977833
aI243542222
aI917763320
aI917763321
aI916269279
aI215643453
aI215643468
aI215643495
aI914978163
aI914978164
aI914978166
aI919930586
aI215644051
aI215644061
aI215644081
aI215644117
aI215644124
aI215644151
aI215644152
aI215656338
aI215644287
aI915011848
aI915011860
aI171513058
aI171524050
aI914980613
aI914980614
aI914980615
aI914980616
aI917378360
asI34811
(lp19
I918455167
aI979698928
aI918455861
aI916275492
aI1045498304
aI1045498305
aI915016347
aI915016348
aI915016374
aI915016375
aI915016407
aI915016408
aI915016409
aI171510667
aI275450847
aI275450849
aI275156503
aI916275816
aI338858508
aI338858512
aI338858517
aI338858519
aI335456095
aI338858754
aI338858756
aI948245280
aI338858792
aI335463219
aI335463230
aI338858973
aI171519577
aI171519590
aI171519664
aI171519673
aI918461185
aI820452157
aI820452158
aI820452159
aI275159881
aI275159916
aI915020678
aI915020679
aI335456184
aI848895329
aI171515310
aI171515380
aI171515403
aI171515433
aI171515436
aI171515468
aI171515475
aI171515491
aI171515493
aI171515503
aI171515512
aI171515516
aI171515571
aI171515958
aI171515970
aI171515977
aI171515991
aI171516008
aI171516011
aI171516015
aI171516017
aI171516039
aI171516048
aI171516052
aI171516067
aI171516073
aI171516077
aI171516118
aI917381374
aI917381375
aI917381376
aI917381377
aI171516178
aI171516365
aI171516369
aI243541009
aI243541065
aI243541125
aI243541131
aI243541136
aI915031593
aI243541256
aI243541277
aI243541286
aI335455651
aI335455653
aI335455659
aI335455661
aI335455664
aI335455705
aI335455706
aI335455710
aI335455715
aI243541801
aI243541812
aI243541825
aI335456091
aI243541855
aI243541861
aI335456104
aI335456121
aI243541894
aI243541895
aI335456137
aI335456140
aI917383067
aI335456158
aI335456164
aI335456171
aI335456172
aI335456173
aI335456175
aI335456181
aI335456188
aI335456192
aI335456197
aI335456239
aI276016166
aI171519660
aI171519842
aI171519858
aI171520015
aI171520017
aI915026686
aI915026687
aI915026734
aI915026733
aI171515373
aI915026871
aI915026872
aI915032338
aI915028112
aI915028119
aI915028120
aI915028131
aI915028159
aI915028160
aI915028161
aI915028162
aI915028163
aI171522400
aI171522435
aI171522537
aI171522543
aI171522564
aI171522603
aI171522612
aI171522620
aI171522622
aI171522646
aI171522666
aI171522671
aI171522675
aI171522716
aI171522717
aI171522719
aI171522729
aI916273840
aI171522751
aI171522752
aI171522779
aI916274399
aI916274457
aI916274458
aI916274880
aI916274918
aI916274919
aI275496819
aI916275282
aI916275283
aI916275493
aI916275817
aI915030634
aI915030635
aI335463221
aI335463286
aI171516056
aI335463346
aI916276350
aI916276351
aI916276352
aI916276353
aI916276354
aI916276355
aI916276356
aI916276357
aI171510656
aI915031594
aI916277085
aI915031981
aI915031982
aI915032005
aI335464395
aI915032307
aI915032308
aI915032336
aI915032337
aI915032615
aI915032616
aI335465205
aI979565961
aI915034048
aI915034063
aI915034064
aI915028111
aI915028132
aI915028133
aI915028134
aI915039149
aI243541071
aI243541132
aI915037725
aI915037726
aI915037798
aI915037799
aI915037830
aI915037831
aI915037832
aI915037833
aI915037834
aI915037835
aI915037836
aI171519674
aI243541283
aI243541288
aI916273833
aI24863203
aI915039019
aI915039020
aI915039444
aI215640357
aI215640377
aI915040735
aI915040814
aI243541783
aI335456079
aI335456099
aI335456103
aI335456107
aI171520027
aI243541882
aI335456125
aI948235738
aI335456194
aI335456223
aI979562780
aI979562781
aI979562782
aI979562783
aI915042717
aI915042718
aI915042730
aI916274881
aI275496785
aI915040813
aI243541798
asI34812
(lp20
I1045498302
aI1045498303
aI171519621
aI171519627
aI171519629
aI171519631
aI171519633
aI171519634
aI171519642
aI171519652
aI171519654
aI171519656
aI171519886
aI171519892
aI243541232
aI243541236
aI335455628
aI171519501
aI171519524
aI171519599
aI171519647
aI171519823
aI171519824
aI171519827
aI171519829
aI171519831
aI171519832
aI171519833
aI171519835
aI171519836
aI171519846
aI171519859
aI171519860
aI171519862
aI171519863
aI171519867
aI171519870
aI171519888
aI171519889
aI171519896
aI171519612
aI171519636
aI275496842
aI275496844
aI915037722
aI915037723
aI915037796
aI915037797
aI915037800
aI915037801
aI948233011
aI948233012
aI948233013
aI948233014
asI34813
(lp21
I976093251
aI976093252
aI976093253
aI976093254
aI171521261
aI976093691
aI976093692
aI976093695
aI952107867
aI1045496746
aI1045496747
aI1045496748
aI1045496749
aI1045496750
aI1045496751
aI1045496752
aI1045496753
aI1045496754
aI1045496764
aI1045496765
aI1045496766
aI1045496767
aI1045496768
aI848561140
aI848561143
aI848561144
aI1045506955
aI1045492533
aI1110608016
aI948251688
aI851479989
aI851479996
aI1060089150
aI215650377
aI275506118
aI1121194398
aI1121194408
aI1120768949
aI221975732
aI221975738
aI221975783
aI848561145
aI1045486014
aI1045486015
aI221978162
aI917381190
aI917381191
aI1045491734
aI335454632
aI335454639
aI335454981
aI335455088
aI335455102
aI335455108
aI335455111
aI335455117
aI335455121
aI335455129
aI335455270
aI335455297
aI335455298
aI335455328
aI243541397
aI915023613
aI915023614
aI1045506952
aI1045506953
aI1045506954
aI1045506956
aI1045491748
aI1045448568
aI1060089137
aI1060089138
aI1060089139
aI1060089140
aI1060089141
aI1060089142
aI1060089143
aI1060089144
aI1060089145
aI1060089146
aI1060089147
aI1060089148
aI1060089149
aI1060089151
aI1060089152
aI1060089153
aI1060089283
aI171519790
aI171519792
aI171519804
aI171519807
aI276017921
aI171520547
aI171520554
aI171520557
aI171520565
aI171520569
aI171520572
aI171520577
aI171520579
aI171520582
aI171520583
aI171520584
aI171520585
aI276017922
aI171520773
aI171520779
aI171520781
aI171520783
aI171520785
aI171520825
aI171520827
aI171520833
aI171521044
aI171521050
aI171521057
aI171521058
aI171521060
aI171521061
aI171521065
aI171521079
aI171521080
aI171521082
aI171521086
aI171521112
aI171521119
aI171521148
aI171521152
aI171521154
aI171521156
aI171521157
aI171521158
aI171521160
aI171521161
aI171521162
aI171521164
aI171521165
aI171521166
aI171521168
aI171521171
aI171521175
aI171521180
aI171521181
aI171521182
aI171521183
aI171521186
aI171521187
aI171521190
aI171521191
aI171521193
aI171521195
aI171521196
aI171521197
aI171521198
aI171521200
aI171521202
aI171521205
aI171521206
aI171521207
aI171521209
aI171521210
aI171521211
aI171521213
aI171521215
aI171521216
aI171521217
aI171521218
aI171521220
aI171521224
aI171521225
aI171521227
aI171521229
aI171521230
aI171521231
aI171521241
aI171521242
aI171521252
aI171521253
aI171521260
aI171521270
aI171521273
aI171521296
aI171521297
aI171521298
aI171521785
aI171521786
aI171521787
aI171521788
aI171521789
aI171521794
aI171521795
aI171521798
aI171521800
aI171521812
aI171521825
aI171521830
aI171521841
aI171521842
aI171521845
aI171521846
aI171521852
aI171521853
aI171521858
aI171521859
aI171521865
aI171521866
aI171521867
aI171521870
aI171521871
aI171521873
aI171521875
aI171521878
aI171521881
aI171521882
aI171521883
aI171521885
aI171521887
aI171521890
aI171521891
aI171521898
aI171521901
aI171521902
aI171521903
aI171521905
aI171521909
aI171521910
aI171521969
aI171521970
aI171521972
aI171521982
aI171521984
aI171521986
aI171522036
aI171522044
aI171522046
aI171522048
aI171522051
aI171522052
aI171522058
aI171522065
aI171522066
aI171522067
aI915032436
aI948255661
aI171521199
aI171521799
aI171521221
aI171521254
aI171521256
aI171521257
aI171521258
aI171521259
aI1120746893
aI171521264
aI171521266
aI171521268
aI1120747132
aI338869953
aI1045479690
aI1045479691
aI1045479692
aI1045479693
aI1045479694
aI1045479695
aI1045479696
aI1045479697
aI1045479698
aI1045479699
aI1045479700
aI1045479701
aI1045479702
aI1045479703
aI1045479704
aI1045479705
aI1045479706
aI1045479707
aI1045479708
aI1045479709
aI1045479710
aI1045479711
aI1045479712
aI1045479713
aI1045479714
aI1045479715
aI1045479716
aI1045479718
aI1045479719
aI1045479720
aI1045479721
aI1045479722
aI1045479723
aI1045479724
aI1045479725
aI1045479726
aI1045479727
aI1045479728
aI1045480223
aI1045480224
aI1045480225
aI1045480226
aI1045480227
aI1045480228
aI1045480229
aI1045480230
aI1045480231
aI1045480232
aI1045480233
aI1045480234
aI1045480235
aI1045480236
aI1045480237
aI1045480238
aI1045480239
aI1045480240
aI1045480241
aI1045480242
aI1045480243
aI1045480244
aI1045480246
aI1045480247
aI1045480248
aI1045480249
aI1045480250
aI1045480251
aI1045480252
aI1045480253
aI1045480254
aI1045480255
aI1045480256
aI1045480257
aI1045480258
aI1045480259
aI1045480260
aI1045480261
aI1045480262
aI1045480263
aI1045480264
aI1045480265
aI1045480266
aI1045480267
aI1045480268
aI1045480269
aI1045480271
aI1045480272
aI1045480273
aI1045480274
aI1045480275
aI1045480277
aI1045480278
aI1045480280
aI1045480281
aI1045480282
aI1045480283
aI1045480284
aI1045480285
aI1045480286
aI1045480287
aI1045480288
aI1045480289
aI1045480290
aI1045480291
aI1045480292
aI1045480293
aI1045480294
aI1045480295
aI1045480296
aI1045480297
aI1045480298
aI1045480299
aI1045480300
aI1045480301
aI1045480302
aI1045480303
aI1045480304
aI1045480305
aI1045480306
aI1045480307
aI1045480308
aI948257946
aI1045486002
aI1045906947
aI1045448565
aI1045448566
aI1045448567
aI872171945
aI872171946
aI171526844
aI171521839
aI948259919
aI1045482931
aI1045482932
aI1045482933
aI1045482934
aI1045482935
aI1045482936
aI1045482937
aI1045482938
aI1045482940
aI1045482941
aI1045482942
aI1045482943
aI1045482944
aI1045482945
aI1045482946
aI1045482947
aI1045482948
aI1045482949
aI1045482950
aI1045482951
aI1045482952
aI1045482954
aI1045482955
aI1045482956
aI1045482958
aI1045482959
aI1045482960
aI1045482961
aI1045482962
aI1045482963
aI1045482964
aI1045482966
aI1045482967
aI1045482968
aI1045482970
aI1045482971
aI1045482972
aI1045482973
aI1045482974
aI1045482979
aI1045482980
aI1045482981
aI1045482984
aI1045482985
aI1045482989
aI1045482990
aI1045482991
aI1045482992
aI1045482994
aI1045482996
aI1045482998
aI1045482999
aI1045483001
aI1045483002
aI1045483003
aI1045483004
aI1045483005
aI1045483007
aI1045483008
aI1045483009
aI1045483010
aI1045483011
aI1045483012
aI1045483013
aI1045483014
aI1045483015
aI1045483016
aI1045483017
aI877710875
aI1045483077
aI1045483078
aI1045483079
aI1045483081
aI1045483082
aI1045483083
aI1045483084
aI1045483085
aI1045483087
aI1045483088
aI1045483094
aI1045483095
aI1045483096
aI1045483104
aI1045483106
aI1045483108
aI1045483110
aI1045483112
aI1045483114
aI1045483116
aI1045483118
aI1045483119
aI1045483120
aI1045483122
aI1045483123
aI1045483124
aI1045483125
aI1045483126
aI1045483127
aI1045483128
aI1045483129
aI1045483130
aI1045483131
aI1045483132
aI1045483133
aI1045483134
aI1045483135
aI1045483136
aI1045483137
aI1045483138
aI1045483139
aI1045483140
aI1045483141
aI1045483142
aI1045483144
aI1045483153
aI1045483156
aI1045483157
aI1045483158
aI1045483159
aI915034078
aI171522053
aI171522057
aI171522061
aI171522063
aI1045451300
aI1045482953
aI1045482957
aI1045482965
aI1045482969
aI1045482975
aI1045482976
aI1045482978
aI1045482982
aI1045482983
aI1045482987
aI335455115
aI335455116
aI1045483080
aI1045483086
aI335456260
aI1045483089
aI1045483091
aI1045483093
aI1045483097
aI1045482977
aI1045483115
aI1045483117
aI1045483121
aI275506209
aI1045485921
aI1045485923
aI1045485924
aI1045485925
aI1045485927
aI1045485928
aI1045485929
aI1045485930
aI1045485931
aI1045485932
aI1045485933
aI1045485934
aI1045485935
aI1045485936
aI1045485937
aI1045485938
aI1045485939
aI1045485940
aI1045485941
aI1045485942
aI1045485943
aI1045485944
aI1045485958
aI1045485966
aI1045485970
aI1045485972
aI1045485973
aI1045485974
aI1045485996
aI1045485998
aI1045486001
aI1045486003
aI1045486004
aI1045486016
aI1045486017
aI1045486018
aI1045486019
aI1045486020
aI1045486021
aI1045486022
aI1045486023
aI1045486024
aI1045486025
aI1045486026
aI1045486027
aI1045486028
aI1045486029
aI1045486030
aI1045486031
aI1045486032
aI1045486033
aI1045486034
aI1045486035
aI1045486036
aI1045486038
aI1045486039
aI275503480
aI1045482986
aI1045482988
aI1045479717
aI275504847
aI275504901
aI1132296846
aI1132296847
aI243541398
aI275505732
aI275505749
aI275505761
aI1045488562
aI1045488563
aI1045488564
aI1045488565
aI1045488570
aI1045488571
aI1045488572
aI1045488574
aI1045488575
aI1045488576
aI1045488577
aI1045488578
aI1045488579
aI1045488580
aI275506121
aI1045483000
aI275506129
aI275506131
aI275506167
aI275506206
aI275506532
aI275506533
aI275506546
aI1045480245
aI222029763
aI915040410
aI1045480276
aI1045480279
aI1045491693
aI1045491694
aI1045491695
aI1045491696
aI1045491697
aI1045491698
aI1045491699
aI1045491700
aI1045491701
aI1045491702
aI1045491703
aI1045491704
aI1045491705
aI1045491706
aI1045491707
aI1045491708
aI1045491709
aI1045491710
aI1045491711
aI1045491712
aI1045491713
aI1045491714
aI1045491715
aI1045491716
aI1045491717
aI1045491718
aI1045491719
aI1045491720
aI1045491721
aI1045491722
aI1045491723
aI1045491724
aI1045491725
aI1045491726
aI1045491727
aI1045491728
aI1045491729
aI1045491730
aI1045491731
aI1045491732
aI1045491735
aI1045491736
aI1045491737
aI1045491738
aI1045491739
aI1045491740
aI1045491741
aI1045491742
aI1045491743
aI1045491744
aI1045491745
aI1045491746
aI1045491747
aI1045491749
aI1045491750
aI1045491751
aI1045491752
aI24866870
aI24866873
aI24867001
aI24867121
aI24867126
aI24867130
aI1120746895
aI24867178
aI24867181
aI24867183
aI1045492534
aI1045492545
aI1045492546
aI1045492547
aI1045492548
aI1045492549
aI1045492550
aI1045492551
aI1045492552
aI1045492553
aI1045492554
aI1045492555
aI1045492556
aI907343436
aI1120747157
aI171521223
aI1045494395
aI1045494396
aI1045494397
aI1045494398
aI1045494399
aI1045494400
aI1045494401
aI1045494402
aI1045494403
aI1045494404
aI1132296845
aI222001943
aI222001968
aI171521255
aI1121189130
aI171521263
aI171521265
aI1045593884
aI1045593885
aI1045593886
asI34814
(lp22
I275972191
aI275972195
aI848561135
aI848561137
aI869008714
aI869008715
aI976095125
aI976095126
aI171519125
aI275975458
aI275975489
aI275975502
aI275975503
aI275975507
aI275975511
aI275975513
aI215641446
aI215650738
aI215650740
aI215650747
aI221975748
aI221975766
aI221975784
aI999960124
aI999960125
aI999960162
aI999960175
aI999960223
aI999960235
aI999960236
aI915036517
aI999960262
aI999960268
aI999960291
aI999960293
aI999960295
aI999960302
aI999960305
aI915036572
aI999960312
aI999960315
aI916275613
aI221977810
aI1062903870
aI1062903882
aI335454586
aI335454587
aI171520111
aI171520126
aI171520132
aI171520136
aI335455165
aI335455166
aI335455167
aI335455168
aI335455224
aI171520192
aI243541507
aI171517473
aI171517476
aI243541572
aI243541746
aI243541749
aI243542371
aI171518412
aI171518414
aI171518415
aI171518416
aI171518424
aI171518425
aI171518432
aI171518433
aI171518435
aI171518443
aI171518447
aI171518454
aI171518459
aI171518461
aI171518465
aI171518523
aI171518531
aI171518533
aI171519134
aI999960121
aI999960122
aI999960123
aI999960126
aI999960127
aI999960128
aI999960129
aI999960130
aI999960131
aI999960132
aI999960133
aI999960135
aI999960137
aI999960138
aI999960139
aI999960140
aI999960141
aI999960142
aI999960143
aI999960144
aI999960145
aI999960146
aI999960147
aI999960148
aI999960149
aI999960150
aI999960151
aI999960152
aI999960153
aI999960154
aI999960155
aI999960156
aI999960157
aI999960158
aI999960159
aI999960160
aI999960161
aI999960163
aI999960174
aI999960176
aI999960177
aI999960178
aI999960179
aI999960180
aI999960181
aI999960182
aI999960183
aI999960184
aI999960185
aI999960186
aI999960187
aI999960188
aI999960189
aI999960190
aI999960191
aI999960192
aI999960193
aI999960194
aI999960195
aI999960196
aI999960197
aI999960198
aI999960199
aI999960200
aI999960201
aI999960202
aI999960203
aI999960204
aI999960205
aI999960206
aI999960207
aI999960208
aI999960209
aI999960210
aI999960211
aI999960212
aI999960213
aI999960214
aI999960215
aI999960216
aI999960217
aI999960218
aI999960219
aI999960220
aI999960221
aI999960222
aI999960224
aI999960225
aI999960226
aI999960227
aI999960228
aI999960229
aI999960230
aI999960231
aI999960232
aI999960233
aI999960234
aI999960237
aI999960238
aI999960239
aI999960240
aI999960241
aI999960242
aI999960243
aI999960244
aI999960245
aI999960246
aI999960247
aI999960248
aI999960249
aI999960250
aI999960251
aI999960252
aI999960253
aI999960254
aI999960255
aI999960256
aI999960257
aI999960258
aI999960259
aI999960260
aI999960261
aI999960263
aI999960264
aI999960265
aI999960266
aI999960288
aI999960289
aI999960294
aI999960296
aI999960298
aI999960299
aI999960301
aI999960303
aI999960304
aI999960307
aI999960308
aI999960309
aI999960310
aI999960311
aI999960313
aI999960314
aI999960316
aI999960317
aI999960318
aI999960319
aI999960321
aI999960322
aI999960323
aI999960324
aI999960325
aI999960326
aI999960327
aI999960328
aI999960329
aI999960330
aI999960331
aI999960332
aI999960334
aI999960335
aI999960336
aI999960337
aI999960338
aI999960339
aI999960340
aI999960341
aI915026015
aI171520113
aI171520119
aI171520139
aI171520143
aI171520144
aI171520145
aI171520146
aI171520147
aI171520148
aI171520151
aI915026074
aI171520155
aI171520156
aI171520158
aI171520162
aI171520163
aI171520166
aI171520167
aI171520177
aI171520178
aI171520187
aI171520189
aI171520201
aI171520219
aI171520258
aI171520261
aI171520305
aI171520310
aI171520311
aI171520312
aI171520316
aI171520341
aI171520353
aI171520354
aI171520355
aI171520357
aI171520360
aI171520363
aI171520378
aI171520587
aI171520588
aI171520593
aI171520600
aI171520602
aI171520653
aI171520658
aI171520662
aI171520664
aI171520674
aI171520677
aI171520737
aI171520743
aI171520751
aI171520639
aI851850470
aI851850471
aI999962409
aI915027759
aI915027760
aI999962731
aI999962733
aI889534628
aI915028135
aI915028136
aI950090253
aI950090254
aI950090255
aI916273793
aI916273794
aI999963423
aI999963426
aI918469869
aI999960134
aI999960136
aI916275200
aI916275201
aI335465148
aI916275614
aI1062903881
aI914964964
aI914964965
aI914964971
aI914965016
aI335463536
aI335463543
aI275990485
aI275990493
aI171526418
aI216615372
aI335465126
aI335465130
aI335465136
aI335465139
aI335465141
aI335465155
aI335465159
aI948259920
aI275991835
aI275991844
aI915033954
aI999960290
aI999960292
aI999960297
aI999960306
aI848777824
aI848777826
aI999962735
aI999962738
aI999960320
aI999960333
aI915035554
aI915035555
aI915035777
aI915035778
aI335455173
aI335455178
aI335455179
aI915036142
aI915036143
aI915036167
aI915036168
aI915036211
aI915036212
aI915036385
aI915036386
aI915036403
aI915036518
aI915036594
aI221993694
aI221993700
aI221993701
aI221993702
aI221993760
aI221993765
aI221993767
aI221993771
aI222001949
aI999963424
aI338879608
aI338879609
aI243541745
aI215641353
aI338881802
aI918469868
aI999962729
aI848777825
aI848777827
aI24866450
aI24866454
aI24866456
aI24866470
aI24866471
aI24866484
aI24866485
aI24866930
aI24866932
aI24866933
aI24866934
aI24866936
aI24866938
aI24866942
aI24866943
aI24866944
aI24866945
aI24866946
aI24866947
aI24866950
aI24866964
aI24866965
aI24866972
aI24866973
aI215641447
aI950302555
aI171520125
aI222001749
aI222001774
aI1045494388
aI1045494389
aI1045494390
aI1045494391
aI1045494392
aI222001827
aI222001832
aI222001833
aI222001834
aI222001854
aI222001874
aI222001878
aI222001879
aI222001880
aI222001881
aI222001882
aI222001883
aI222001889
aI243542378
aI999960300
aI275512658
aI275512670
aI915026025
aI275512813
aI24866472
aI275513089
asI34815
(lp23
I921338666
aI921338667
aI921338668
aI921338669
aI921338670
aI275973212
aI171518839
aI338857612
aI338857622
aI976097050
aI813011270
aI813011271
aI813011272
aI335450613
aI335450616
aI275977215
aI275977219
aI221977840
aI915021357
aI915021358
aI915021359
aI915021360
aI915021361
aI275980904
aI171517398
aI171517403
aI171517434
aI171517435
aI171517446
aI171517449
aI243541590
aI243541624
aI243541627
aI243541737
aI243541744
aI171518351
aI171518361
aI171518362
aI171518364
aI171518369
aI171518371
aI171518374
aI171518375
aI171518377
aI171518381
aI171518386
aI171518387
aI171518388
aI171518396
aI171518399
aI171518401
aI171518402
aI171518403
aI171518472
aI171518479
aI171518482
aI171518489
aI171518490
aI171518491
aI171518492
aI171518493
aI171518494
aI171518508
aI171518521
aI171518545
aI171518551
aI171518829
aI171518832
aI171518886
aI171518895
aI171518906
aI171518910
aI222001718
aI1062385670
aI1062385671
aI1062385672
aI1062385673
aI1062385675
aI1062385676
aI880294291
aI880294292
aI880294293
aI880294294
aI880294295
aI880294296
aI880294297
aI880294298
aI880294299
aI880294300
aI976142031
aI976142032
aI976142033
aI275117378
aI957565728
aI335454591
aI957565729
aI1062385674
aI338874692
aI338874693
aI1084216965
aI287955016
aI287955017
aI287955019
aI287955022
aI915021356
aI221993773
aI222001679
aI851371179
aI851371180
aI851371183
aI222029786
aI956524711
aI956524712
aI956524714
aI956524715
aI956524716
aI956524717
aI956524718
aI956524719
aI956524720
aI956524721
aI956524722
aI243541735
aI215673451
aI215673457
aI915041483
aI24866461
aI24866462
aI24866464
aI215641768
aI215641769
aI215641775
aI215641778
aI24866489
aI24866490
aI24866495
aI24866496
aI24866498
aI24866499
aI24866503
aI24866507
aI24866515
aI24866520
aI24866531
aI24866650
aI851472961
aI851472962
aI851472963
aI851472964
aI851472965
aI215642841
aI215642842
aI956524713
aI950302549
aI950302550
aI950302551
aI950302552
aI950302553
aI950302554
aI976142034
aI222001688
aI222001692
aI222001712
aI171518389
aI222001739
aI171518397
aI171518407
aI863501719
aI863501720
aI863501723
aI863501724
aI863501725
aI863501726
as.