(dp1
I34816
I215642887
sI34722
I335454711
sI35619
I196301464
sI28228
I243541105
sI28229
I311295471
sI28230
I338857644
sI28231
I976097046
sI28232
I24880273
sI28234
I915037453
sI28235
I171521324
sI28236
I243541361
sI24664
I171528429
sI27865
I24864960
sI34780
I338858860
sI34665
I979707344
sI34666
I979707344
sI34810
I24866362
sI34811
I171522666
sI34812
I915037723
sI34813
I1045506956
sI34814
I24866930
sI34815
I222001712
s.