(dp1
I34816
(F-80.414736500000004
F37.142514640000002
tp2
sI36239
(F-80.056273379999993
F37.281494850000001
tp3
sI27864
(F-80.59313942
F37.117043840000001
tp4
sI24595
(F-80.167608099999995
F37.231619530000003
tp5
sI24597
(F-80.02305441
F37.267446419999999
tp6
sI24598
(F-80.119466799999998
F37.178367899999998
tp7
sI27865
(F-80.530267359999996
F37.123261800000002
tp8
sI22746
(F-80.039368190000005
F37.274860859999997
tp9
sI27678
(F-80.308591770000007
F36.925929420000003
tp10
sI34722
(F-80.389121840000001
F37.205800150000002
tp11
sI35619
(F-80.537656920000003
F37.145503640000001
tp12
sI34982
(F-80.177464959999995
F37.237097990000002
tp13
sI34780
(F-80.425544619999997
F37.233944430000001
tp14
sI24667
(F-80.098287499999998
F37.282540320000003
tp15
sI34370
(F-80.582385340000002
F37.072363780000003
tp16
sI28228
(F-80.380971259999995
F37.277081879999997
tp17
sI28229
(F-80.467101690000007
F37.102224540000002
tp18
sI28230
(F-80.444058609999999
F37.165246639999999
tp19
sI28231
(F-80.383959959999999
F37.122528379999999
tp20
sI28232
(F-80.331193040000002
F37.138303020000002
tp21
sI28233
(F-80.398420209999998
F36.975394250000001
tp22
sI28234
(F-80.418816109999995
F37.192544730000002
tp23
sI28235
(F-80.421638239999993
F37.232649850000001
tp24
sI28236
(F-80.390041370000006
F37.20643699
tp25
sI35022
(F-80.170077860000006
F37.237286480000002
tp26
sI24668
(F-80.070328840000002
F37.289767159999997
tp27
sI27863
(F-80.584123919999996
F37.07467364
tp28
sI24664
(F-80.265553389999994
F37.147595369999998
tp29
sI22745
(F-80.056601880000002
F37.281232850000002
tp30
sI24666
(F-80.125892379999996
F37.299874750000001
tp31
sI22747
(F-80.029855470000001
F37.289435220000001
tp32
sI22748
(F-80.024114409999996
F37.267397250000002
tp33
sI22749
(F-80.030706210000005
F37.279863040000002
tp34
sI24677
(F-80.030293139999998
F37.279585490000002
tp35
sI22759
(F-80.027166969999996
F37.293935320000003
tp36
sI34665
(F-80.327609890000005
F37.13407857
tp37
sI34666
(F-80.327396530000001
F37.134125040000001
tp38
sI25966
(F-80.614567100000002
F37.114142829999999
tp39
sI24665
(F-80.177539909999993
F37.236908819999996
tp40
sI34810
(F-80.39790868
F37.119267499999999
tp41
sI34811
(F-80.445548489999993
F37.259296550000002
tp42
sI34812
(F-80.444600140000006
F37.229617210000001
tp43
sI34813
(F-80.420064699999998
F37.210140269999997
tp44
sI34814
(F-80.422703639999995
F37.170765729999999
tp45
sI34815
(F-80.411527669999998
F37.15259022
tp46
s.